
BootOnlyBootLoader.elf:     file format elf32-littlearm

Sections:
Idx Name          Size      VMA       LMA       File off  Algn
  0 .isr_vector   00000194  08000000  08000000  00001000  2**0
                  CONTENTS, ALLOC, LOAD, READONLY, DATA
  1 .text         000022bc  08000194  08000194  00001194  2**2
                  CONTENTS, ALLOC, LOAD, READONLY, CODE
  2 .rodata       00000304  08002450  08002450  00003450  2**2
                  CONTENTS, ALLOC, LOAD, READONLY, DATA
  3 .ARM.extab    00000000  08002754  08002754  0000402c  2**0
                  CONTENTS, READONLY
  4 .ARM          00000008  08002754  08002754  00003754  2**2
                  CONTENTS, ALLOC, LOAD, READONLY, DATA
  5 .preinit_array 00000000  0800275c  0800275c  0000402c  2**0
                  CONTENTS, ALLOC, LOAD, DATA
  6 .init_array   00000004  0800275c  0800275c  0000375c  2**2
                  CONTENTS, ALLOC, LOAD, READONLY, DATA
  7 .fini_array   00000004  08002760  08002760  00003760  2**2
                  CONTENTS, ALLOC, LOAD, READONLY, DATA
  8 .data         0000002c  20000000  08002764  00004000  2**2
                  CONTENTS, ALLOC, LOAD, DATA
  9 .bss          000000b0  2000002c  08002790  0000402c  2**2
                  ALLOC
 10 ._user_heap_stack 00000a04  200000dc  08002790  000040dc  2**0
                  ALLOC
 11 .ARM.attributes 00000030  00000000  00000000  0000402c  2**0
                  CONTENTS, READONLY
 12 .debug_info   0000bb65  00000000  00000000  0000405c  2**0
                  CONTENTS, READONLY, DEBUGGING, OCTETS
 13 .debug_abbrev 00001eac  00000000  00000000  0000fbc1  2**0
                  CONTENTS, READONLY, DEBUGGING, OCTETS
 14 .debug_loclists 000053df  00000000  00000000  00011a6d  2**0
                  CONTENTS, READONLY, DEBUGGING, OCTETS
 15 .debug_aranges 000006b0  00000000  00000000  00016e50  2**3
                  CONTENTS, READONLY, DEBUGGING, OCTETS
 16 .debug_rnglists 00000719  00000000  00000000  00017500  2**0
                  CONTENTS, READONLY, DEBUGGING, OCTETS
 17 .debug_macro  000155f5  00000000  00000000  00017c19  2**0
                  CONTENTS, READONLY, DEBUGGING, OCTETS
 18 .debug_line   0000bb7a  00000000  00000000  0002d20e  2**0
                  CONTENTS, READONLY, DEBUGGING, OCTETS
 19 .debug_str    00085547  00000000  00000000  00038d88  2**0
                  CONTENTS, READONLY, DEBUGGING, OCTETS
 20 .comment      00000043  00000000  00000000  000be2cf  2**0
                  CONTENTS, READONLY
 21 .debug_frame  000010d8  00000000  00000000  000be314  2**2
                  CONTENTS, READONLY, DEBUGGING, OCTETS
 22 .debug_line_str 00000048  00000000  00000000  000bf3ec  2**0
                  CONTENTS, READONLY, DEBUGGING, OCTETS

Disassembly of section .text:

08000194 <__do_global_dtors_aux>:
 8000194:	b510      	push	{r4, lr}
 8000196:	4c05      	ldr	r4, [pc, #20]	@ (80001ac <__do_global_dtors_aux+0x18>)
 8000198:	7823      	ldrb	r3, [r4, #0]
 800019a:	b933      	cbnz	r3, 80001aa <__do_global_dtors_aux+0x16>
 800019c:	4b04      	ldr	r3, [pc, #16]	@ (80001b0 <__do_global_dtors_aux+0x1c>)
 800019e:	b113      	cbz	r3, 80001a6 <__do_global_dtors_aux+0x12>
 80001a0:	4804      	ldr	r0, [pc, #16]	@ (80001b4 <__do_global_dtors_aux+0x20>)
 80001a2:	f3af 8000 	nop.w
 80001a6:	2301      	movs	r3, #1
 80001a8:	7023      	strb	r3, [r4, #0]
 80001aa:	bd10      	pop	{r4, pc}
 80001ac:	2000002c 	.word	0x2000002c
 80001b0:	00000000 	.word	0x00000000
 80001b4:	08002438 	.word	0x08002438

080001b8 <frame_dummy>:
 80001b8:	b508      	push	{r3, lr}
 80001ba:	4b03      	ldr	r3, [pc, #12]	@ (80001c8 <frame_dummy+0x10>)
 80001bc:	b11b      	cbz	r3, 80001c6 <frame_dummy+0xe>
 80001be:	4903      	ldr	r1, [pc, #12]	@ (80001cc <frame_dummy+0x14>)
 80001c0:	4803      	ldr	r0, [pc, #12]	@ (80001d0 <frame_dummy+0x18>)
 80001c2:	f3af 8000 	nop.w
 80001c6:	bd08      	pop	{r3, pc}
 80001c8:	00000000 	.word	0x00000000
 80001cc:	20000030 	.word	0x20000030
 80001d0:	08002438 	.word	0x08002438

080001d4 <__aeabi_uldivmod>:
 80001d4:	b953      	cbnz	r3, 80001ec <__aeabi_uldivmod+0x18>
 80001d6:	b94a      	cbnz	r2, 80001ec <__aeabi_uldivmod+0x18>
 80001d8:	2900      	cmp	r1, #0
 80001da:	bf08      	it	eq
 80001dc:	2800      	cmpeq	r0, #0
 80001de:	bf1c      	itt	ne
 80001e0:	f04f 31ff 	movne.w	r1, #4294967295
 80001e4:	f04f 30ff 	movne.w	r0, #4294967295
 80001e8:	f000 b988 	b.w	80004fc <__aeabi_idiv0>
 80001ec:	f1ad 0c08 	sub.w	ip, sp, #8
 80001f0:	e96d ce04 	strd	ip, lr, [sp, #-16]!
 80001f4:	f000 f806 	bl	8000204 <__udivmoddi4>
 80001f8:	f8dd e004 	ldr.w	lr, [sp, #4]
 80001fc:	e9dd 2302 	ldrd	r2, r3, [sp, #8]
 8000200:	b004      	add	sp, #16
 8000202:	4770      	bx	lr

08000204 <__udivmoddi4>:
 8000204:	e92d 47f0 	stmdb	sp!, {r4, r5, r6, r7, r8, r9, sl, lr}
 8000208:	9d08      	ldr	r5, [sp, #32]
 800020a:	468e      	mov	lr, r1
 800020c:	4604      	mov	r4, r0
 800020e:	4688      	mov	r8, r1
 8000210:	2b00      	cmp	r3, #0
 8000212:	d14a      	bne.n	80002aa <__udivmoddi4+0xa6>
 8000214:	428a      	cmp	r2, r1
 8000216:	4617      	mov	r7, r2
 8000218:	d962      	bls.n	80002e0 <__udivmoddi4+0xdc>
 800021a:	fab2 f682 	clz	r6, r2
 800021e:	b14e      	cbz	r6, 8000234 <__udivmoddi4+0x30>
 8000220:	f1c6 0320 	rsb	r3, r6, #32
 8000224:	fa01 f806 	lsl.w	r8, r1, r6
 8000228:	fa20 f303 	lsr.w	r3, r0, r3
 800022c:	40b7      	lsls	r7, r6
 800022e:	ea43 0808 	orr.w	r8, r3, r8
 8000232:	40b4      	lsls	r4, r6
 8000234:	ea4f 4e17 	mov.w	lr, r7, lsr #16
 8000238:	fa1f fc87 	uxth.w	ip, r7
 800023c:	fbb8 f1fe 	udiv	r1, r8, lr
 8000240:	0c23      	lsrs	r3, r4, #16
 8000242:	fb0e 8811 	mls	r8, lr, r1, r8
 8000246:	ea43 4308 	orr.w	r3, r3, r8, lsl #16
 800024a:	fb01 f20c 	mul.w	r2, r1, ip
 800024e:	429a      	cmp	r2, r3
 8000250:	d909      	bls.n	8000266 <__udivmoddi4+0x62>
 8000252:	18fb      	adds	r3, r7, r3
 8000254:	f101 30ff 	add.w	r0, r1, #4294967295
 8000258:	f080 80ea 	bcs.w	8000430 <__udivmoddi4+0x22c>
 800025c:	429a      	cmp	r2, r3
 800025e:	f240 80e7 	bls.w	8000430 <__udivmoddi4+0x22c>
 8000262:	3902      	subs	r1, #2
 8000264:	443b      	add	r3, r7
 8000266:	1a9a      	subs	r2, r3, r2
 8000268:	b2a3      	uxth	r3, r4
 800026a:	fbb2 f0fe 	udiv	r0, r2, lr
 800026e:	fb0e 2210 	mls	r2, lr, r0, r2
 8000272:	ea43 4302 	orr.w	r3, r3, r2, lsl #16
 8000276:	fb00 fc0c 	mul.w	ip, r0, ip
 800027a:	459c      	cmp	ip, r3
 800027c:	d909      	bls.n	8000292 <__udivmoddi4+0x8e>
 800027e:	18fb      	adds	r3, r7, r3
 8000280:	f100 32ff 	add.w	r2, r0, #4294967295
 8000284:	f080 80d6 	bcs.w	8000434 <__udivmoddi4+0x230>
 8000288:	459c      	cmp	ip, r3
 800028a:	f240 80d3 	bls.w	8000434 <__udivmoddi4+0x230>
 800028e:	443b      	add	r3, r7
 8000290:	3802      	subs	r0, #2
 8000292:	ea40 4001 	orr.w	r0, r0, r1, lsl #16
 8000296:	eba3 030c 	sub.w	r3, r3, ip
 800029a:	2100      	movs	r1, #0
 800029c:	b11d      	cbz	r5, 80002a6 <__udivmoddi4+0xa2>
 800029e:	40f3      	lsrs	r3, r6
 80002a0:	2200      	movs	r2, #0
 80002a2:	e9c5 3200 	strd	r3, r2, [r5]
 80002a6:	e8bd 87f0 	ldmia.w	sp!, {r4, r5, r6, r7, r8, r9, sl, pc}
 80002aa:	428b      	cmp	r3, r1
 80002ac:	d905      	bls.n	80002ba <__udivmoddi4+0xb6>
 80002ae:	b10d      	cbz	r5, 80002b4 <__udivmoddi4+0xb0>
 80002b0:	e9c5 0100 	strd	r0, r1, [r5]
 80002b4:	2100      	movs	r1, #0
 80002b6:	4608      	mov	r0, r1
 80002b8:	e7f5      	b.n	80002a6 <__udivmoddi4+0xa2>
 80002ba:	fab3 f183 	clz	r1, r3
 80002be:	2900      	cmp	r1, #0
 80002c0:	d146      	bne.n	8000350 <__udivmoddi4+0x14c>
 80002c2:	4573      	cmp	r3, lr
 80002c4:	d302      	bcc.n	80002cc <__udivmoddi4+0xc8>
 80002c6:	4282      	cmp	r2, r0
 80002c8:	f200 8105 	bhi.w	80004d6 <__udivmoddi4+0x2d2>
 80002cc:	1a84      	subs	r4, r0, r2
 80002ce:	eb6e 0203 	sbc.w	r2, lr, r3
 80002d2:	2001      	movs	r0, #1
 80002d4:	4690      	mov	r8, r2
 80002d6:	2d00      	cmp	r5, #0
 80002d8:	d0e5      	beq.n	80002a6 <__udivmoddi4+0xa2>
 80002da:	e9c5 4800 	strd	r4, r8, [r5]
 80002de:	e7e2      	b.n	80002a6 <__udivmoddi4+0xa2>
 80002e0:	2a00      	cmp	r2, #0
 80002e2:	f000 8090 	beq.w	8000406 <__udivmoddi4+0x202>
 80002e6:	fab2 f682 	clz	r6, r2
 80002ea:	2e00      	cmp	r6, #0
 80002ec:	f040 80a4 	bne.w	8000438 <__udivmoddi4+0x234>
 80002f0:	1a8a      	subs	r2, r1, r2
 80002f2:	0c03      	lsrs	r3, r0, #16
 80002f4:	ea4f 4e17 	mov.w	lr, r7, lsr #16
 80002f8:	b280      	uxth	r0, r0
 80002fa:	b2bc      	uxth	r4, r7
 80002fc:	2101      	movs	r1, #1
 80002fe:	fbb2 fcfe 	udiv	ip, r2, lr
 8000302:	fb0e 221c 	mls	r2, lr, ip, r2
 8000306:	ea43 4302 	orr.w	r3, r3, r2, lsl #16
 800030a:	fb04 f20c 	mul.w	r2, r4, ip
 800030e:	429a      	cmp	r2, r3
 8000310:	d907      	bls.n	8000322 <__udivmoddi4+0x11e>
 8000312:	18fb      	adds	r3, r7, r3
 8000314:	f10c 38ff 	add.w	r8, ip, #4294967295
 8000318:	d202      	bcs.n	8000320 <__udivmoddi4+0x11c>
 800031a:	429a      	cmp	r2, r3
 800031c:	f200 80e0 	bhi.w	80004e0 <__udivmoddi4+0x2dc>
 8000320:	46c4      	mov	ip, r8
 8000322:	1a9b      	subs	r3, r3, r2
 8000324:	fbb3 f2fe 	udiv	r2, r3, lr
 8000328:	fb0e 3312 	mls	r3, lr, r2, r3
 800032c:	ea40 4303 	orr.w	r3, r0, r3, lsl #16
 8000330:	fb02 f404 	mul.w	r4, r2, r4
 8000334:	429c      	cmp	r4, r3
 8000336:	d907      	bls.n	8000348 <__udivmoddi4+0x144>
 8000338:	18fb      	adds	r3, r7, r3
 800033a:	f102 30ff 	add.w	r0, r2, #4294967295
 800033e:	d202      	bcs.n	8000346 <__udivmoddi4+0x142>
 8000340:	429c      	cmp	r4, r3
 8000342:	f200 80ca 	bhi.w	80004da <__udivmoddi4+0x2d6>
 8000346:	4602      	mov	r2, r0
 8000348:	1b1b      	subs	r3, r3, r4
 800034a:	ea42 400c 	orr.w	r0, r2, ip, lsl #16
 800034e:	e7a5      	b.n	800029c <__udivmoddi4+0x98>
 8000350:	f1c1 0620 	rsb	r6, r1, #32
 8000354:	408b      	lsls	r3, r1
 8000356:	fa22 f706 	lsr.w	r7, r2, r6
 800035a:	431f      	orrs	r7, r3
 800035c:	fa0e f401 	lsl.w	r4, lr, r1
 8000360:	fa20 f306 	lsr.w	r3, r0, r6
 8000364:	fa2e fe06 	lsr.w	lr, lr, r6
 8000368:	ea4f 4917 	mov.w	r9, r7, lsr #16
 800036c:	4323      	orrs	r3, r4
 800036e:	fa00 f801 	lsl.w	r8, r0, r1
 8000372:	fa1f fc87 	uxth.w	ip, r7
 8000376:	fbbe f0f9 	udiv	r0, lr, r9
 800037a:	0c1c      	lsrs	r4, r3, #16
 800037c:	fb09 ee10 	mls	lr, r9, r0, lr
 8000380:	ea44 440e 	orr.w	r4, r4, lr, lsl #16
 8000384:	fb00 fe0c 	mul.w	lr, r0, ip
 8000388:	45a6      	cmp	lr, r4
 800038a:	fa02 f201 	lsl.w	r2, r2, r1
 800038e:	d909      	bls.n	80003a4 <__udivmoddi4+0x1a0>
 8000390:	193c      	adds	r4, r7, r4
 8000392:	f100 3aff 	add.w	sl, r0, #4294967295
 8000396:	f080 809c 	bcs.w	80004d2 <__udivmoddi4+0x2ce>
 800039a:	45a6      	cmp	lr, r4
 800039c:	f240 8099 	bls.w	80004d2 <__udivmoddi4+0x2ce>
 80003a0:	3802      	subs	r0, #2
 80003a2:	443c      	add	r4, r7
 80003a4:	eba4 040e 	sub.w	r4, r4, lr
 80003a8:	fa1f fe83 	uxth.w	lr, r3
 80003ac:	fbb4 f3f9 	udiv	r3, r4, r9
 80003b0:	fb09 4413 	mls	r4, r9, r3, r4
 80003b4:	ea4e 4404 	orr.w	r4, lr, r4, lsl #16
 80003b8:	fb03 fc0c 	mul.w	ip, r3, ip
 80003bc:	45a4      	cmp	ip, r4
 80003be:	d908      	bls.n	80003d2 <__udivmoddi4+0x1ce>
 80003c0:	193c      	adds	r4, r7, r4
 80003c2:	f103 3eff 	add.w	lr, r3, #4294967295
 80003c6:	f080 8082 	bcs.w	80004ce <__udivmoddi4+0x2ca>
 80003ca:	45a4      	cmp	ip, r4
 80003cc:	d97f      	bls.n	80004ce <__udivmoddi4+0x2ca>
 80003ce:	3b02      	subs	r3, #2
 80003d0:	443c      	add	r4, r7
 80003d2:	ea43 4000 	orr.w	r0, r3, r0, lsl #16
 80003d6:	eba4 040c 	sub.w	r4, r4, ip
 80003da:	fba0 ec02 	umull	lr, ip, r0, r2
 80003de:	4564      	cmp	r4, ip
 80003e0:	4673      	mov	r3, lr
 80003e2:	46e1      	mov	r9, ip
 80003e4:	d362      	bcc.n	80004ac <__udivmoddi4+0x2a8>
 80003e6:	d05f      	beq.n	80004a8 <__udivmoddi4+0x2a4>
 80003e8:	b15d      	cbz	r5, 8000402 <__udivmoddi4+0x1fe>
 80003ea:	ebb8 0203 	subs.w	r2, r8, r3
 80003ee:	eb64 0409 	sbc.w	r4, r4, r9
 80003f2:	fa04 f606 	lsl.w	r6, r4, r6
 80003f6:	fa22 f301 	lsr.w	r3, r2, r1
 80003fa:	431e      	orrs	r6, r3
 80003fc:	40cc      	lsrs	r4, r1
 80003fe:	e9c5 6400 	strd	r6, r4, [r5]
 8000402:	2100      	movs	r1, #0
 8000404:	e74f      	b.n	80002a6 <__udivmoddi4+0xa2>
 8000406:	fbb1 fcf2 	udiv	ip, r1, r2
 800040a:	0c01      	lsrs	r1, r0, #16
 800040c:	ea41 410e 	orr.w	r1, r1, lr, lsl #16
 8000410:	b280      	uxth	r0, r0
 8000412:	ea40 4201 	orr.w	r2, r0, r1, lsl #16
 8000416:	463b      	mov	r3, r7
 8000418:	4638      	mov	r0, r7
 800041a:	463c      	mov	r4, r7
 800041c:	46b8      	mov	r8, r7
 800041e:	46be      	mov	lr, r7
 8000420:	2620      	movs	r6, #32
 8000422:	fbb1 f1f7 	udiv	r1, r1, r7
 8000426:	eba2 0208 	sub.w	r2, r2, r8
 800042a:	ea41 410c 	orr.w	r1, r1, ip, lsl #16
 800042e:	e766      	b.n	80002fe <__udivmoddi4+0xfa>
 8000430:	4601      	mov	r1, r0
 8000432:	e718      	b.n	8000266 <__udivmoddi4+0x62>
 8000434:	4610      	mov	r0, r2
 8000436:	e72c      	b.n	8000292 <__udivmoddi4+0x8e>
 8000438:	f1c6 0220 	rsb	r2, r6, #32
 800043c:	fa2e f302 	lsr.w	r3, lr, r2
 8000440:	40b7      	lsls	r7, r6
 8000442:	40b1      	lsls	r1, r6
 8000444:	fa20 f202 	lsr.w	r2, r0, r2
 8000448:	ea4f 4e17 	mov.w	lr, r7, lsr #16
 800044c:	430a      	orrs	r2, r1
 800044e:	fbb3 f8fe 	udiv	r8, r3, lr
 8000452:	b2bc      	uxth	r4, r7
 8000454:	fb0e 3318 	mls	r3, lr, r8, r3
 8000458:	0c11      	lsrs	r1, r2, #16
 800045a:	ea41 4103 	orr.w	r1, r1, r3, lsl #16
 800045e:	fb08 f904 	mul.w	r9, r8, r4
 8000462:	40b0      	lsls	r0, r6
 8000464:	4589      	cmp	r9, r1
 8000466:	ea4f 4310 	mov.w	r3, r0, lsr #16
 800046a:	b280      	uxth	r0, r0
 800046c:	d93e      	bls.n	80004ec <__udivmoddi4+0x2e8>
 800046e:	1879      	adds	r1, r7, r1
 8000470:	f108 3cff 	add.w	ip, r8, #4294967295
 8000474:	d201      	bcs.n	800047a <__udivmoddi4+0x276>
 8000476:	4589      	cmp	r9, r1
 8000478:	d81f      	bhi.n	80004ba <__udivmoddi4+0x2b6>
 800047a:	eba1 0109 	sub.w	r1, r1, r9
 800047e:	fbb1 f9fe 	udiv	r9, r1, lr
 8000482:	fb09 f804 	mul.w	r8, r9, r4
 8000486:	fb0e 1119 	mls	r1, lr, r9, r1
 800048a:	b292      	uxth	r2, r2
 800048c:	ea42 4201 	orr.w	r2, r2, r1, lsl #16
 8000490:	4542      	cmp	r2, r8
 8000492:	d229      	bcs.n	80004e8 <__udivmoddi4+0x2e4>
 8000494:	18ba      	adds	r2, r7, r2
 8000496:	f109 31ff 	add.w	r1, r9, #4294967295
 800049a:	d2c4      	bcs.n	8000426 <__udivmoddi4+0x222>
 800049c:	4542      	cmp	r2, r8
 800049e:	d2c2      	bcs.n	8000426 <__udivmoddi4+0x222>
 80004a0:	f1a9 0102 	sub.w	r1, r9, #2
 80004a4:	443a      	add	r2, r7
 80004a6:	e7be      	b.n	8000426 <__udivmoddi4+0x222>
 80004a8:	45f0      	cmp	r8, lr
 80004aa:	d29d      	bcs.n	80003e8 <__udivmoddi4+0x1e4>
 80004ac:	ebbe 0302 	subs.w	r3, lr, r2
 80004b0:	eb6c 0c07 	sbc.w	ip, ip, r7
 80004b4:	3801      	subs	r0, #1
 80004b6:	46e1      	mov	r9, ip
 80004b8:	e796      	b.n	80003e8 <__udivmoddi4+0x1e4>
 80004ba:	eba7 0909 	sub.w	r9, r7, r9
 80004be:	4449      	add	r1, r9
 80004c0:	f1a8 0c02 	sub.w	ip, r8, #2
 80004c4:	fbb1 f9fe 	udiv	r9, r1, lr
 80004c8:	fb09 f804 	mul.w	r8, r9, r4
 80004cc:	e7db      	b.n	8000486 <__udivmoddi4+0x282>
 80004ce:	4673      	mov	r3, lr
 80004d0:	e77f      	b.n	80003d2 <__udivmoddi4+0x1ce>
 80004d2:	4650      	mov	r0, sl
 80004d4:	e766      	b.n	80003a4 <__udivmoddi4+0x1a0>
 80004d6:	4608      	mov	r0, r1
 80004d8:	e6fd      	b.n	80002d6 <__udivmoddi4+0xd2>
 80004da:	443b      	add	r3, r7
 80004dc:	3a02      	subs	r2, #2
 80004de:	e733      	b.n	8000348 <__udivmoddi4+0x144>
 80004e0:	f1ac 0c02 	sub.w	ip, ip, #2
 80004e4:	443b      	add	r3, r7
 80004e6:	e71c      	b.n	8000322 <__udivmoddi4+0x11e>
 80004e8:	4649      	mov	r1, r9
 80004ea:	e79c      	b.n	8000426 <__udivmoddi4+0x222>
 80004ec:	eba1 0109 	sub.w	r1, r1, r9
 80004f0:	46c4      	mov	ip, r8
 80004f2:	fbb1 f9fe 	udiv	r9, r1, lr
 80004f6:	fb09 f804 	mul.w	r8, r9, r4
 80004fa:	e7c4      	b.n	8000486 <__udivmoddi4+0x282>

080004fc <__aeabi_idiv0>:
 80004fc:	4770      	bx	lr
 80004fe:	bf00      	nop

08000500 <sha256_compute>:
/*
 * Minimal SHA-256 implementation for bootloader digest verification.
 * Public domain, based on FIPS 180-2.
 */
static void sha256_compute(const uint8_t *data, uint32_t total_len, uint8_t *digest)
{
 8000500:	e92d 4ff0 	stmdb	sp!, {r4, r5, r6, r7, r8, r9, sl, fp, lr}
    0xa2bfe8a1,0xa81a664b,0xc24b8b70,0xc76c51a3,0xd192e819,0xd6990624,0xf40e3585,0x106aa070,
    0x19a4c116,0x1e376c08,0x2748774c,0x34b0bcb5,0x391c0cb3,0x4ed8aa4a,0x5b9cca4f,0x682e6ff3,
    0x748f82ee,0x78a5636f,0x84c87814,0x8cc70208,0x90befffa,0xa4506ceb,0xbef9a3f7,0xc67178f2,
  };

  uint32_t H[8] = {
 8000504:	4ea7      	ldr	r6, [pc, #668]	@ (80007a4 <sha256_compute+0x2a4>)
  uint32_t a, b, c, d, e, f, g, h, T1, T2;
  uint32_t j;
  uint32_t len = total_len;

  /* Process full 512-bit blocks */
  while (len >= 64) {
 8000506:	f8df 92bc 	ldr.w	r9, [pc, #700]	@ 80007c4 <sha256_compute+0x2c4>
{
 800050a:	b0e5      	sub	sp, #404	@ 0x194
 800050c:	4604      	mov	r4, r0
 800050e:	9107      	str	r1, [sp, #28]
 8000510:	920b      	str	r2, [sp, #44]	@ 0x2c
  uint32_t H[8] = {
 8000512:	ce0f      	ldmia	r6!, {r0, r1, r2, r3}
 8000514:	ad0c      	add	r5, sp, #48	@ 0x30
 8000516:	c50f      	stmia	r5!, {r0, r1, r2, r3}
 8000518:	e896 000f 	ldmia.w	r6, {r0, r1, r2, r3}
 800051c:	e885 000f 	stmia.w	r5, {r0, r1, r2, r3}
  while (len >= 64) {
 8000520:	9b07      	ldr	r3, [sp, #28]
 8000522:	4aa1      	ldr	r2, [pc, #644]	@ (80007a8 <sha256_compute+0x2a8>)
 8000524:	49a1      	ldr	r1, [pc, #644]	@ (80007ac <sha256_compute+0x2ac>)
 8000526:	48a2      	ldr	r0, [pc, #648]	@ (80007b0 <sha256_compute+0x2b0>)
 8000528:	f023 033f 	bic.w	r3, r3, #63	@ 0x3f
 800052c:	18e3      	adds	r3, r4, r3
 800052e:	9309      	str	r3, [sp, #36]	@ 0x24
 8000530:	4ba0      	ldr	r3, [pc, #640]	@ (80007b4 <sha256_compute+0x2b4>)
 8000532:	e9cd 2305 	strd	r2, r3, [sp, #20]
 8000536:	4ba0      	ldr	r3, [pc, #640]	@ (80007b8 <sha256_compute+0x2b8>)
 8000538:	e9cd 3103 	strd	r3, r1, [sp, #12]
 800053c:	4b9f      	ldr	r3, [pc, #636]	@ (80007bc <sha256_compute+0x2bc>)
 800053e:	e9cd 3001 	strd	r3, r0, [sp, #4]
 8000542:	f103 43fe 	add.w	r3, r3, #2130706432	@ 0x7f000000
 8000546:	f5a3 23e8 	sub.w	r3, r3, #475136	@ 0x74000
 800054a:	f2a3 43ed 	subw	r3, r3, #1261	@ 0x4ed
 800054e:	9300      	str	r3, [sp, #0]
 8000550:	2300      	movs	r3, #0
 8000552:	9a09      	ldr	r2, [sp, #36]	@ 0x24
 8000554:	4294      	cmp	r4, r2
 8000556:	f040 8193 	bne.w	8000880 <sha256_compute+0x380>
 800055a:	9a07      	ldr	r2, [sp, #28]
 800055c:	f002 023f 	and.w	r2, r2, #63	@ 0x3f
 8000560:	b173      	cbz	r3, 8000580 <sha256_compute+0x80>
 8000562:	9b05      	ldr	r3, [sp, #20]
 8000564:	9313      	str	r3, [sp, #76]	@ 0x4c
 8000566:	9b06      	ldr	r3, [sp, #24]
 8000568:	9312      	str	r3, [sp, #72]	@ 0x48
 800056a:	9b04      	ldr	r3, [sp, #16]
 800056c:	9311      	str	r3, [sp, #68]	@ 0x44
 800056e:	9b03      	ldr	r3, [sp, #12]
 8000570:	9310      	str	r3, [sp, #64]	@ 0x40
 8000572:	9b02      	ldr	r3, [sp, #8]
 8000574:	930f      	str	r3, [sp, #60]	@ 0x3c
 8000576:	9b01      	ldr	r3, [sp, #4]
 8000578:	930e      	str	r3, [sp, #56]	@ 0x38
 800057a:	9b00      	ldr	r3, [sp, #0]
 800057c:	e9cd 930c 	strd	r9, r3, [sp, #48]	@ 0x30
 8000580:	9b09      	ldr	r3, [sp, #36]	@ 0x24
 8000582:	a914      	add	r1, sp, #80	@ 0x50
 8000584:	189c      	adds	r4, r3, r2
      uint32_t maj = (a & b) ^ (a & c) ^ (b & c);
      T2 = S0 + maj;
      h = g; g = f; f = e; e = d + T1; d = c; c = b; b = a; a = T1 + T2;
    }
    H[0] += a; H[1] += b; H[2] += c; H[3] += d;
    H[4] += e; H[5] += f; H[6] += g; H[7] += h;
 8000586:	4608      	mov	r0, r1
  }

  /* Final block with padding */
  uint8_t block[64];
  uint32_t i;
  for (i = 0; i < len; i++) block[i] = data[i];
 8000588:	429c      	cmp	r4, r3
 800058a:	f040 81fb 	bne.w	8000984 <sha256_compute+0x484>
  block[len++] = 0x80;
 800058e:	1c53      	adds	r3, r2, #1
 8000590:	2080      	movs	r0, #128	@ 0x80
  if (len > 56) {
 8000592:	2b38      	cmp	r3, #56	@ 0x38
  block[len++] = 0x80;
 8000594:	5488      	strb	r0, [r1, r2]
  if (len > 56) {
 8000596:	f240 809d 	bls.w	80006d4 <sha256_compute+0x1d4>
    while (len < 64) block[len++] = 0;
 800059a:	2200      	movs	r2, #0
 800059c:	54ca      	strb	r2, [r1, r3]
 800059e:	3301      	adds	r3, #1
 80005a0:	2b40      	cmp	r3, #64	@ 0x40
 80005a2:	d1fb      	bne.n	800059c <sha256_compute+0x9c>
 80005a4:	aa24      	add	r2, sp, #144	@ 0x90
 80005a6:	4615      	mov	r5, r2
 80005a8:	460c      	mov	r4, r1
    for (j = 0; j < 16; j++) {
 80005aa:	2000      	movs	r0, #0
      W[j] = ((uint32_t)block[j*4]<<24) | ((uint32_t)block[j*4+1]<<16) |
 80005ac:	7863      	ldrb	r3, [r4, #1]
 80005ae:	7826      	ldrb	r6, [r4, #0]
 80005b0:	041b      	lsls	r3, r3, #16
             ((uint32_t)block[j*4+2]<<8) | (uint32_t)block[j*4+3];
 80005b2:	ea43 6306 	orr.w	r3, r3, r6, lsl #24
 80005b6:	78e6      	ldrb	r6, [r4, #3]
 80005b8:	4333      	orrs	r3, r6
 80005ba:	78a6      	ldrb	r6, [r4, #2]
    for (j = 0; j < 16; j++) {
 80005bc:	3001      	adds	r0, #1
             ((uint32_t)block[j*4+2]<<8) | (uint32_t)block[j*4+3];
 80005be:	ea43 2306 	orr.w	r3, r3, r6, lsl #8
    for (j = 0; j < 16; j++) {
 80005c2:	2810      	cmp	r0, #16
      W[j] = ((uint32_t)block[j*4]<<24) | ((uint32_t)block[j*4+1]<<16) |
 80005c4:	f845 3b04 	str.w	r3, [r5], #4
    for (j = 0; j < 16; j++) {
 80005c8:	f104 0404 	add.w	r4, r4, #4
 80005cc:	d1ee      	bne.n	80005ac <sha256_compute+0xac>
    }
    for (j = 16; j < 64; j++) {
      uint32_t s0 = ((W[j-15]>>7)|(W[j-15]<<25)) ^ ((W[j-15]>>18)|(W[j-15]<<14)) ^ (W[j-15]>>3);
 80005ce:	6854      	ldr	r4, [r2, #4]
      uint32_t s1 = ((W[j-2]>>17)|(W[j-2]<<15)) ^ ((W[j-2]>>19)|(W[j-2]<<13)) ^ (W[j-2]>>10);
 80005d0:	6b95      	ldr	r5, [r2, #56]	@ 0x38
      W[j] = W[j-16] + s0 + W[j-7] + s1;
 80005d2:	4616      	mov	r6, r2
      uint32_t s0 = ((W[j-15]>>7)|(W[j-15]<<25)) ^ ((W[j-15]>>18)|(W[j-15]<<14)) ^ (W[j-15]>>3);
 80005d4:	ea4f 43b4 	mov.w	r3, r4, ror #18
 80005d8:	3204      	adds	r2, #4
 80005da:	ea83 13f4 	eor.w	r3, r3, r4, ror #7
 80005de:	ea83 03d4 	eor.w	r3, r3, r4, lsr #3
      W[j] = W[j-16] + s0 + W[j-7] + s1;
 80005e2:	6834      	ldr	r4, [r6, #0]
 80005e4:	6a16      	ldr	r6, [r2, #32]
 80005e6:	4434      	add	r4, r6
 80005e8:	4423      	add	r3, r4
      uint32_t s1 = ((W[j-2]>>17)|(W[j-2]<<15)) ^ ((W[j-2]>>19)|(W[j-2]<<13)) ^ (W[j-2]>>10);
 80005ea:	ea4f 44f5 	mov.w	r4, r5, ror #19
 80005ee:	ea84 4475 	eor.w	r4, r4, r5, ror #17
 80005f2:	ea84 2495 	eor.w	r4, r4, r5, lsr #10
    for (j = 16; j < 64; j++) {
 80005f6:	3001      	adds	r0, #1
      W[j] = W[j-16] + s0 + W[j-7] + s1;
 80005f8:	4423      	add	r3, r4
    for (j = 16; j < 64; j++) {
 80005fa:	2840      	cmp	r0, #64	@ 0x40
      W[j] = W[j-16] + s0 + W[j-7] + s1;
 80005fc:	63d3      	str	r3, [r2, #60]	@ 0x3c
    for (j = 16; j < 64; j++) {
 80005fe:	d1e6      	bne.n	80005ce <sha256_compute+0xce>
    }
    a = H[0]; b = H[1]; c = H[2]; d = H[3];
 8000600:	9b0c      	ldr	r3, [sp, #48]	@ 0x30
 8000602:	9300      	str	r3, [sp, #0]
 8000604:	9b0d      	ldr	r3, [sp, #52]	@ 0x34
 8000606:	9301      	str	r3, [sp, #4]
 8000608:	9b0e      	ldr	r3, [sp, #56]	@ 0x38
 800060a:	9302      	str	r3, [sp, #8]
 800060c:	9b0f      	ldr	r3, [sp, #60]	@ 0x3c
 800060e:	9303      	str	r3, [sp, #12]
    e = H[4]; f = H[5]; g = H[6]; h = H[7];
 8000610:	9b10      	ldr	r3, [sp, #64]	@ 0x40
 8000612:	9304      	str	r3, [sp, #16]
 8000614:	9b11      	ldr	r3, [sp, #68]	@ 0x44
 8000616:	9305      	str	r3, [sp, #20]
 8000618:	9b12      	ldr	r3, [sp, #72]	@ 0x48
 800061a:	9306      	str	r3, [sp, #24]
 800061c:	9b13      	ldr	r3, [sp, #76]	@ 0x4c
 800061e:	9308      	str	r3, [sp, #32]
 8000620:	e9dd c705 	ldrd	ip, r7, [sp, #20]
    a = H[0]; b = H[1]; c = H[2]; d = H[3];
 8000624:	e9dd 8003 	ldrd	r8, r0, [sp, #12]
 8000628:	e9dd 6501 	ldrd	r6, r5, [sp, #4]
 800062c:	4b64      	ldr	r3, [pc, #400]	@ (80007c0 <sha256_compute+0x2c0>)
    e = H[4]; f = H[5]; g = H[6]; h = H[7];
 800062e:	f8dd a020 	ldr.w	sl, [sp, #32]
    a = H[0]; b = H[1]; c = H[2]; d = H[3];
 8000632:	9c00      	ldr	r4, [sp, #0]
 8000634:	9309      	str	r3, [sp, #36]	@ 0x24
    for (j = 0; j < 64; j++) {
 8000636:	f04f 0e00 	mov.w	lr, #0
      uint32_t S1 = ((e>>6)|(e<<26)) ^ ((e>>11)|(e<<21)) ^ ((e>>25)|(e<<7));
      uint32_t ch = (e & f) ^ ((~e) & g);
      T1 = h + S1 + ch + K[j] + W[j];
 800063a:	f10d 0990 	add.w	r9, sp, #144	@ 0x90
 800063e:	9a09      	ldr	r2, [sp, #36]	@ 0x24
 8000640:	f852 3b04 	ldr.w	r3, [r2], #4
 8000644:	9209      	str	r2, [sp, #36]	@ 0x24
      uint32_t S1 = ((e>>6)|(e<<26)) ^ ((e>>11)|(e<<21)) ^ ((e>>25)|(e<<7));
 8000646:	ea4f 22f0 	mov.w	r2, r0, ror #11
 800064a:	ea82 12b0 	eor.w	r2, r2, r0, ror #6
 800064e:	ea82 6270 	eor.w	r2, r2, r0, ror #25
 8000652:	920a      	str	r2, [sp, #40]	@ 0x28
      T1 = h + S1 + ch + K[j] + W[j];
 8000654:	f859 202e 	ldr.w	r2, [r9, lr, lsl #2]
 8000658:	eb03 0b02 	add.w	fp, r3, r2
 800065c:	9a0a      	ldr	r2, [sp, #40]	@ 0x28
      uint32_t ch = (e & f) ^ ((~e) & g);
 800065e:	ea27 0300 	bic.w	r3, r7, r0
      T1 = h + S1 + ch + K[j] + W[j];
 8000662:	445a      	add	r2, fp
      uint32_t ch = (e & f) ^ ((~e) & g);
 8000664:	ea00 0b0c 	and.w	fp, r0, ip
 8000668:	ea83 030b 	eor.w	r3, r3, fp
      T1 = h + S1 + ch + K[j] + W[j];
 800066c:	441a      	add	r2, r3
 800066e:	4452      	add	r2, sl
      uint32_t S0 = ((a>>2)|(a<<30)) ^ ((a>>13)|(a<<19)) ^ ((a>>22)|(a<<10));
      uint32_t maj = (a & b) ^ (a & c) ^ (b & c);
 8000670:	ea86 0305 	eor.w	r3, r6, r5
      uint32_t S0 = ((a>>2)|(a<<30)) ^ ((a>>13)|(a<<19)) ^ ((a>>22)|(a<<10));
 8000674:	ea4f 3a74 	mov.w	sl, r4, ror #13
      uint32_t maj = (a & b) ^ (a & c) ^ (b & c);
 8000678:	ea06 0b05 	and.w	fp, r6, r5
      uint32_t S0 = ((a>>2)|(a<<30)) ^ ((a>>13)|(a<<19)) ^ ((a>>22)|(a<<10));
 800067c:	ea8a 0ab4 	eor.w	sl, sl, r4, ror #2
      uint32_t maj = (a & b) ^ (a & c) ^ (b & c);
 8000680:	4023      	ands	r3, r4
      uint32_t S0 = ((a>>2)|(a<<30)) ^ ((a>>13)|(a<<19)) ^ ((a>>22)|(a<<10));
 8000682:	ea8a 5ab4 	eor.w	sl, sl, r4, ror #22
      uint32_t maj = (a & b) ^ (a & c) ^ (b & c);
 8000686:	ea83 030b 	eor.w	r3, r3, fp
    for (j = 0; j < 64; j++) {
 800068a:	f10e 0e01 	add.w	lr, lr, #1
      T2 = S0 + maj;
 800068e:	4453      	add	r3, sl
    for (j = 0; j < 64; j++) {
 8000690:	f1be 0f40 	cmp.w	lr, #64	@ 0x40
      h = g; g = f; f = e; e = d + T1; d = c; c = b; b = a; a = T1 + T2;
 8000694:	eb02 0b08 	add.w	fp, r2, r8
 8000698:	4413      	add	r3, r2
    for (j = 0; j < 64; j++) {
 800069a:	46a8      	mov	r8, r5
 800069c:	46ba      	mov	sl, r7
 800069e:	f040 8176 	bne.w	800098e <sha256_compute+0x48e>
    }
    H[0] += a; H[1] += b; H[2] += c; H[3] += d;
 80006a2:	9a00      	ldr	r2, [sp, #0]
 80006a4:	441a      	add	r2, r3
 80006a6:	9b01      	ldr	r3, [sp, #4]
 80006a8:	920c      	str	r2, [sp, #48]	@ 0x30
 80006aa:	4423      	add	r3, r4
 80006ac:	930d      	str	r3, [sp, #52]	@ 0x34
 80006ae:	9b02      	ldr	r3, [sp, #8]
 80006b0:	4433      	add	r3, r6
 80006b2:	930e      	str	r3, [sp, #56]	@ 0x38
 80006b4:	9b03      	ldr	r3, [sp, #12]
 80006b6:	442b      	add	r3, r5
 80006b8:	930f      	str	r3, [sp, #60]	@ 0x3c
    H[4] += e; H[5] += f; H[6] += g; H[7] += h;
 80006ba:	9b04      	ldr	r3, [sp, #16]
 80006bc:	445b      	add	r3, fp
 80006be:	9310      	str	r3, [sp, #64]	@ 0x40
 80006c0:	9b05      	ldr	r3, [sp, #20]
 80006c2:	4403      	add	r3, r0
 80006c4:	9311      	str	r3, [sp, #68]	@ 0x44
 80006c6:	9b06      	ldr	r3, [sp, #24]
 80006c8:	4463      	add	r3, ip
 80006ca:	9312      	str	r3, [sp, #72]	@ 0x48
 80006cc:	9b08      	ldr	r3, [sp, #32]
 80006ce:	443b      	add	r3, r7
 80006d0:	9313      	str	r3, [sp, #76]	@ 0x4c
    len = 0;
 80006d2:	2300      	movs	r3, #0
 80006d4:	2200      	movs	r2, #0
  }
  while (len < 56) block[len++] = 0;
 80006d6:	a814      	add	r0, sp, #80	@ 0x50
 80006d8:	2b38      	cmp	r3, #56	@ 0x38
 80006da:	f040 815f 	bne.w	800099c <sha256_compute+0x49c>
  /* Append length in bits, big-endian */
  {
    uint64_t bitlen = (uint64_t)total_len * 8;
 80006de:	9b07      	ldr	r3, [sp, #28]
 80006e0:	ad24      	add	r5, sp, #144	@ 0x90
 80006e2:	ea4f 7c53 	mov.w	ip, r3, lsr #29
 80006e6:	00d8      	lsls	r0, r3, #3
 80006e8:	2200      	movs	r2, #0
 80006ea:	462b      	mov	r3, r5
    for (i = 0; i < 8; i++) block[63 - i] = (uint8_t)(bitlen >> (i * 8));
 80006ec:	f1c2 0720 	rsb	r7, r2, #32
 80006f0:	f1a2 0620 	sub.w	r6, r2, #32
 80006f4:	fa20 f402 	lsr.w	r4, r0, r2
 80006f8:	fa0c f707 	lsl.w	r7, ip, r7
 80006fc:	433c      	orrs	r4, r7
 80006fe:	fa2c f606 	lsr.w	r6, ip, r6
 8000702:	3208      	adds	r2, #8
 8000704:	4334      	orrs	r4, r6
 8000706:	2a40      	cmp	r2, #64	@ 0x40
 8000708:	f805 4d01 	strb.w	r4, [r5, #-1]!
 800070c:	d1ee      	bne.n	80006ec <sha256_compute+0x1ec>
 800070e:	461c      	mov	r4, r3
  }
  for (j = 0; j < 16; j++) {
 8000710:	2000      	movs	r0, #0
    W[j] = ((uint32_t)block[j*4]<<24) | ((uint32_t)block[j*4+1]<<16) |
 8000712:	784a      	ldrb	r2, [r1, #1]
 8000714:	780d      	ldrb	r5, [r1, #0]
 8000716:	0412      	lsls	r2, r2, #16
           ((uint32_t)block[j*4+2]<<8) | (uint32_t)block[j*4+3];
 8000718:	ea42 6205 	orr.w	r2, r2, r5, lsl #24
 800071c:	78cd      	ldrb	r5, [r1, #3]
 800071e:	432a      	orrs	r2, r5
 8000720:	788d      	ldrb	r5, [r1, #2]
  for (j = 0; j < 16; j++) {
 8000722:	3001      	adds	r0, #1
           ((uint32_t)block[j*4+2]<<8) | (uint32_t)block[j*4+3];
 8000724:	ea42 2205 	orr.w	r2, r2, r5, lsl #8
  for (j = 0; j < 16; j++) {
 8000728:	2810      	cmp	r0, #16
    W[j] = ((uint32_t)block[j*4]<<24) | ((uint32_t)block[j*4+1]<<16) |
 800072a:	f844 2b04 	str.w	r2, [r4], #4
  for (j = 0; j < 16; j++) {
 800072e:	f101 0104 	add.w	r1, r1, #4
 8000732:	d1ee      	bne.n	8000712 <sha256_compute+0x212>
  }
  for (j = 16; j < 64; j++) {
    uint32_t s0 = ((W[j-15]>>7)|(W[j-15]<<25)) ^ ((W[j-15]>>18)|(W[j-15]<<14)) ^ (W[j-15]>>3);
 8000734:	6859      	ldr	r1, [r3, #4]
    uint32_t s1 = ((W[j-2]>>17)|(W[j-2]<<15)) ^ ((W[j-2]>>19)|(W[j-2]<<13)) ^ (W[j-2]>>10);
 8000736:	6b9c      	ldr	r4, [r3, #56]	@ 0x38
    W[j] = W[j-16] + s0 + W[j-7] + s1;
 8000738:	461d      	mov	r5, r3
    uint32_t s0 = ((W[j-15]>>7)|(W[j-15]<<25)) ^ ((W[j-15]>>18)|(W[j-15]<<14)) ^ (W[j-15]>>3);
 800073a:	ea4f 42b1 	mov.w	r2, r1, ror #18
 800073e:	3304      	adds	r3, #4
 8000740:	ea82 12f1 	eor.w	r2, r2, r1, ror #7
 8000744:	ea82 02d1 	eor.w	r2, r2, r1, lsr #3
    W[j] = W[j-16] + s0 + W[j-7] + s1;
 8000748:	6829      	ldr	r1, [r5, #0]
 800074a:	6a1d      	ldr	r5, [r3, #32]
 800074c:	4429      	add	r1, r5
 800074e:	440a      	add	r2, r1
    uint32_t s1 = ((W[j-2]>>17)|(W[j-2]<<15)) ^ ((W[j-2]>>19)|(W[j-2]<<13)) ^ (W[j-2]>>10);
 8000750:	ea4f 41f4 	mov.w	r1, r4, ror #19
 8000754:	ea81 4174 	eor.w	r1, r1, r4, ror #17
 8000758:	ea81 2194 	eor.w	r1, r1, r4, lsr #10
  for (j = 16; j < 64; j++) {
 800075c:	3001      	adds	r0, #1
    W[j] = W[j-16] + s0 + W[j-7] + s1;
 800075e:	440a      	add	r2, r1
  for (j = 16; j < 64; j++) {
 8000760:	2840      	cmp	r0, #64	@ 0x40
    W[j] = W[j-16] + s0 + W[j-7] + s1;
 8000762:	63da      	str	r2, [r3, #60]	@ 0x3c
  for (j = 16; j < 64; j++) {
 8000764:	d1e6      	bne.n	8000734 <sha256_compute+0x234>
  }
  a = H[0]; b = H[1]; c = H[2]; d = H[3];
 8000766:	e9dd c30c 	ldrd	ip, r3, [sp, #48]	@ 0x30
 800076a:	9300      	str	r3, [sp, #0]
 800076c:	9b0e      	ldr	r3, [sp, #56]	@ 0x38
 800076e:	9301      	str	r3, [sp, #4]
 8000770:	9b0f      	ldr	r3, [sp, #60]	@ 0x3c
 8000772:	9302      	str	r3, [sp, #8]
  e = H[4]; f = H[5]; g = H[6]; h = H[7];
 8000774:	9b10      	ldr	r3, [sp, #64]	@ 0x40
 8000776:	9303      	str	r3, [sp, #12]
 8000778:	9b11      	ldr	r3, [sp, #68]	@ 0x44
 800077a:	9304      	str	r3, [sp, #16]
 800077c:	9b12      	ldr	r3, [sp, #72]	@ 0x48
 800077e:	9305      	str	r3, [sp, #20]
 8000780:	9b13      	ldr	r3, [sp, #76]	@ 0x4c
 8000782:	9306      	str	r3, [sp, #24]
 8000784:	e9dd 6a05 	ldrd	r6, sl, [sp, #20]
 8000788:	e9dd 1703 	ldrd	r1, r7, [sp, #12]
  a = H[0]; b = H[1]; c = H[2]; d = H[3];
 800078c:	e9dd 4801 	ldrd	r4, r8, [sp, #4]
 8000790:	4b0b      	ldr	r3, [pc, #44]	@ (80007c0 <sha256_compute+0x2c0>)
 8000792:	9d00      	ldr	r5, [sp, #0]
 8000794:	9307      	str	r3, [sp, #28]
 8000796:	4660      	mov	r0, ip
  for (j = 0; j < 64; j++) {
 8000798:	f04f 0e00 	mov.w	lr, #0
    uint32_t S1 = ((e>>6)|(e<<26)) ^ ((e>>11)|(e<<21)) ^ ((e>>25)|(e<<7));
    uint32_t ch = (e & f) ^ ((~e) & g);
    T1 = h + S1 + ch + K[j] + W[j];
 800079c:	f10d 0990 	add.w	r9, sp, #144	@ 0x90
 80007a0:	e012      	b.n	80007c8 <sha256_compute+0x2c8>
 80007a2:	bf00      	nop
 80007a4:	08002450 	.word	0x08002450
 80007a8:	5be0cd19 	.word	0x5be0cd19
 80007ac:	9b05688c 	.word	0x9b05688c
 80007b0:	a54ff53a 	.word	0xa54ff53a
 80007b4:	1f83d9ab 	.word	0x1f83d9ab
 80007b8:	510e527f 	.word	0x510e527f
 80007bc:	3c6ef372 	.word	0x3c6ef372
 80007c0:	08002604 	.word	0x08002604
 80007c4:	6a09e667 	.word	0x6a09e667
 80007c8:	9a07      	ldr	r2, [sp, #28]
 80007ca:	f852 3b04 	ldr.w	r3, [r2], #4
 80007ce:	9207      	str	r2, [sp, #28]
    uint32_t S1 = ((e>>6)|(e<<26)) ^ ((e>>11)|(e<<21)) ^ ((e>>25)|(e<<7));
 80007d0:	ea4f 22f1 	mov.w	r2, r1, ror #11
 80007d4:	ea82 12b1 	eor.w	r2, r2, r1, ror #6
 80007d8:	ea82 6271 	eor.w	r2, r2, r1, ror #25
 80007dc:	9208      	str	r2, [sp, #32]
    T1 = h + S1 + ch + K[j] + W[j];
 80007de:	f859 202e 	ldr.w	r2, [r9, lr, lsl #2]
 80007e2:	eb03 0b02 	add.w	fp, r3, r2
 80007e6:	9a08      	ldr	r2, [sp, #32]
    uint32_t ch = (e & f) ^ ((~e) & g);
 80007e8:	ea26 0301 	bic.w	r3, r6, r1
    T1 = h + S1 + ch + K[j] + W[j];
 80007ec:	445a      	add	r2, fp
    uint32_t ch = (e & f) ^ ((~e) & g);
 80007ee:	ea01 0b07 	and.w	fp, r1, r7
 80007f2:	ea83 030b 	eor.w	r3, r3, fp
    T1 = h + S1 + ch + K[j] + W[j];
 80007f6:	441a      	add	r2, r3
 80007f8:	4452      	add	r2, sl
    uint32_t S0 = ((a>>2)|(a<<30)) ^ ((a>>13)|(a<<19)) ^ ((a>>22)|(a<<10));
    uint32_t maj = (a & b) ^ (a & c) ^ (b & c);
 80007fa:	ea85 0304 	eor.w	r3, r5, r4
    uint32_t S0 = ((a>>2)|(a<<30)) ^ ((a>>13)|(a<<19)) ^ ((a>>22)|(a<<10));
 80007fe:	ea4f 3a70 	mov.w	sl, r0, ror #13
    uint32_t maj = (a & b) ^ (a & c) ^ (b & c);
 8000802:	ea05 0b04 	and.w	fp, r5, r4
    uint32_t S0 = ((a>>2)|(a<<30)) ^ ((a>>13)|(a<<19)) ^ ((a>>22)|(a<<10));
 8000806:	ea8a 0ab0 	eor.w	sl, sl, r0, ror #2
    uint32_t maj = (a & b) ^ (a & c) ^ (b & c);
 800080a:	4003      	ands	r3, r0
    uint32_t S0 = ((a>>2)|(a<<30)) ^ ((a>>13)|(a<<19)) ^ ((a>>22)|(a<<10));
 800080c:	ea8a 5ab0 	eor.w	sl, sl, r0, ror #22
    uint32_t maj = (a & b) ^ (a & c) ^ (b & c);
 8000810:	ea83 030b 	eor.w	r3, r3, fp
  for (j = 0; j < 64; j++) {
 8000814:	f10e 0e01 	add.w	lr, lr, #1
    T2 = S0 + maj;
 8000818:	4453      	add	r3, sl
  for (j = 0; j < 64; j++) {
 800081a:	f1be 0f40 	cmp.w	lr, #64	@ 0x40
    h = g; g = f; f = e; e = d + T1; d = c; c = b; b = a; a = T1 + T2;
 800081e:	eb02 0b08 	add.w	fp, r2, r8
 8000822:	4413      	add	r3, r2
  for (j = 0; j < 64; j++) {
 8000824:	46a0      	mov	r8, r4
 8000826:	46b2      	mov	sl, r6
 8000828:	f040 80bb 	bne.w	80009a2 <sha256_compute+0x4a2>
  }
  H[0] += a; H[1] += b; H[2] += c; H[3] += d;
 800082c:	4463      	add	r3, ip
 800082e:	930c      	str	r3, [sp, #48]	@ 0x30
 8000830:	9b00      	ldr	r3, [sp, #0]
 8000832:	9a0b      	ldr	r2, [sp, #44]	@ 0x2c
 8000834:	4403      	add	r3, r0
 8000836:	930d      	str	r3, [sp, #52]	@ 0x34
 8000838:	9b01      	ldr	r3, [sp, #4]
 800083a:	442b      	add	r3, r5
 800083c:	930e      	str	r3, [sp, #56]	@ 0x38
 800083e:	9b02      	ldr	r3, [sp, #8]
 8000840:	4423      	add	r3, r4
 8000842:	930f      	str	r3, [sp, #60]	@ 0x3c
  H[4] += e; H[5] += f; H[6] += g; H[7] += h;
 8000844:	9b03      	ldr	r3, [sp, #12]
 8000846:	445b      	add	r3, fp
 8000848:	9310      	str	r3, [sp, #64]	@ 0x40
 800084a:	9b04      	ldr	r3, [sp, #16]
 800084c:	440b      	add	r3, r1
 800084e:	9311      	str	r3, [sp, #68]	@ 0x44
 8000850:	9b05      	ldr	r3, [sp, #20]
 8000852:	443b      	add	r3, r7
 8000854:	9312      	str	r3, [sp, #72]	@ 0x48
 8000856:	9b06      	ldr	r3, [sp, #24]
 8000858:	4433      	add	r3, r6
 800085a:	9313      	str	r3, [sp, #76]	@ 0x4c

  for (j = 0; j < 8; j++) {
 800085c:	f102 0020 	add.w	r0, r2, #32
 8000860:	ab0c      	add	r3, sp, #48	@ 0x30
    digest[j*4 + 0] = (uint8_t)(H[j] >> 24);
 8000862:	f853 1b04 	ldr.w	r1, [r3], #4
    digest[j*4 + 1] = (uint8_t)(H[j] >> 16);
    digest[j*4 + 2] = (uint8_t)(H[j] >> 8);
    digest[j*4 + 3] = (uint8_t)(H[j]);
 8000866:	70d1      	strb	r1, [r2, #3]
    digest[j*4 + 0] = (uint8_t)(H[j] >> 24);
 8000868:	0e0c      	lsrs	r4, r1, #24
 800086a:	7014      	strb	r4, [r2, #0]
    digest[j*4 + 1] = (uint8_t)(H[j] >> 16);
 800086c:	0c0c      	lsrs	r4, r1, #16
 800086e:	7054      	strb	r4, [r2, #1]
    digest[j*4 + 2] = (uint8_t)(H[j] >> 8);
 8000870:	0a0c      	lsrs	r4, r1, #8
 8000872:	7094      	strb	r4, [r2, #2]
  for (j = 0; j < 8; j++) {
 8000874:	3204      	adds	r2, #4
 8000876:	4290      	cmp	r0, r2
 8000878:	d1f3      	bne.n	8000862 <sha256_compute+0x362>
  }
}
 800087a:	b065      	add	sp, #404	@ 0x194
 800087c:	e8bd 8ff0 	ldmia.w	sp!, {r4, r5, r6, r7, r8, r9, sl, fp, pc}
 8000880:	aa24      	add	r2, sp, #144	@ 0x90
  while (len >= 64) {
 8000882:	4611      	mov	r1, r2
    for (j = 0; j < 16; j++) {
 8000884:	f104 0040 	add.w	r0, r4, #64	@ 0x40
      W[j] = ((uint32_t)data[0]<<24) | ((uint32_t)data[1]<<16) |
 8000888:	f854 3b04 	ldr.w	r3, [r4], #4
 800088c:	ba1b      	rev	r3, r3
    for (j = 0; j < 16; j++) {
 800088e:	4284      	cmp	r4, r0
      W[j] = ((uint32_t)data[0]<<24) | ((uint32_t)data[1]<<16) |
 8000890:	f841 3b04 	str.w	r3, [r1], #4
    for (j = 0; j < 16; j++) {
 8000894:	d1f8      	bne.n	8000888 <sha256_compute+0x388>
    for (j = 16; j < 64; j++) {
 8000896:	2510      	movs	r5, #16
      uint32_t s0 = ((W[j-15]>>7)|(W[j-15]<<25)) ^ ((W[j-15]>>18)|(W[j-15]<<14)) ^ (W[j-15]>>3);
 8000898:	6851      	ldr	r1, [r2, #4]
      uint32_t s1 = ((W[j-2]>>17)|(W[j-2]<<15)) ^ ((W[j-2]>>19)|(W[j-2]<<13)) ^ (W[j-2]>>10);
 800089a:	6b96      	ldr	r6, [r2, #56]	@ 0x38
      W[j] = W[j-16] + s0 + W[j-7] + s1;
 800089c:	4613      	mov	r3, r2
      uint32_t s0 = ((W[j-15]>>7)|(W[j-15]<<25)) ^ ((W[j-15]>>18)|(W[j-15]<<14)) ^ (W[j-15]>>3);
 800089e:	ea4f 40b1 	mov.w	r0, r1, ror #18
 80008a2:	3204      	adds	r2, #4
 80008a4:	ea80 10f1 	eor.w	r0, r0, r1, ror #7
 80008a8:	ea80 00d1 	eor.w	r0, r0, r1, lsr #3
      W[j] = W[j-16] + s0 + W[j-7] + s1;
 80008ac:	6819      	ldr	r1, [r3, #0]
 80008ae:	6a13      	ldr	r3, [r2, #32]
 80008b0:	4419      	add	r1, r3
      uint32_t s1 = ((W[j-2]>>17)|(W[j-2]<<15)) ^ ((W[j-2]>>19)|(W[j-2]<<13)) ^ (W[j-2]>>10);
 80008b2:	ea4f 43f6 	mov.w	r3, r6, ror #19
 80008b6:	ea83 4376 	eor.w	r3, r3, r6, ror #17
      W[j] = W[j-16] + s0 + W[j-7] + s1;
 80008ba:	4401      	add	r1, r0
      uint32_t s1 = ((W[j-2]>>17)|(W[j-2]<<15)) ^ ((W[j-2]>>19)|(W[j-2]<<13)) ^ (W[j-2]>>10);
 80008bc:	ea83 2396 	eor.w	r3, r3, r6, lsr #10
    for (j = 16; j < 64; j++) {
 80008c0:	3501      	adds	r5, #1
      W[j] = W[j-16] + s0 + W[j-7] + s1;
 80008c2:	4419      	add	r1, r3
    for (j = 16; j < 64; j++) {
 80008c4:	2d40      	cmp	r5, #64	@ 0x40
      W[j] = W[j-16] + s0 + W[j-7] + s1;
 80008c6:	63d1      	str	r1, [r2, #60]	@ 0x3c
    for (j = 16; j < 64; j++) {
 80008c8:	d1e6      	bne.n	8000898 <sha256_compute+0x398>
 80008ca:	4b39      	ldr	r3, [pc, #228]	@ (80009b0 <sha256_compute+0x4b0>)
 80008cc:	930a      	str	r3, [sp, #40]	@ 0x28
    e = H[4]; f = H[5]; g = H[6]; h = H[7];
 80008ce:	e9dd ac05 	ldrd	sl, ip, [sp, #20]
 80008d2:	e9dd 1e03 	ldrd	r1, lr, [sp, #12]
    a = H[0]; b = H[1]; c = H[2]; d = H[3];
 80008d6:	e9dd 6500 	ldrd	r6, r5, [sp]
 80008da:	9b02      	ldr	r3, [sp, #8]
 80008dc:	9308      	str	r3, [sp, #32]
 80008de:	4648      	mov	r0, r9
    for (j = 0; j < 64; j++) {
 80008e0:	f04f 0800 	mov.w	r8, #0
      T1 = h + S1 + ch + K[j] + W[j];
 80008e4:	9a0a      	ldr	r2, [sp, #40]	@ 0x28
 80008e6:	af24      	add	r7, sp, #144	@ 0x90
 80008e8:	f852 3b04 	ldr.w	r3, [r2], #4
 80008ec:	f857 7028 	ldr.w	r7, [r7, r8, lsl #2]
 80008f0:	920a      	str	r2, [sp, #40]	@ 0x28
      uint32_t S1 = ((e>>6)|(e<<26)) ^ ((e>>11)|(e<<21)) ^ ((e>>25)|(e<<7));
 80008f2:	ea4f 22f1 	mov.w	r2, r1, ror #11
 80008f6:	ea82 12b1 	eor.w	r2, r2, r1, ror #6
      T1 = h + S1 + ch + K[j] + W[j];
 80008fa:	eb03 0b07 	add.w	fp, r3, r7
      uint32_t S1 = ((e>>6)|(e<<26)) ^ ((e>>11)|(e<<21)) ^ ((e>>25)|(e<<7));
 80008fe:	ea82 6271 	eor.w	r2, r2, r1, ror #25
      T1 = h + S1 + ch + K[j] + W[j];
 8000902:	445a      	add	r2, fp
      uint32_t ch = (e & f) ^ ((~e) & g);
 8000904:	ea2c 0301 	bic.w	r3, ip, r1
 8000908:	ea01 0b0e 	and.w	fp, r1, lr
 800090c:	ea83 030b 	eor.w	r3, r3, fp
      T1 = h + S1 + ch + K[j] + W[j];
 8000910:	441a      	add	r2, r3
 8000912:	4452      	add	r2, sl
      uint32_t maj = (a & b) ^ (a & c) ^ (b & c);
 8000914:	ea86 0305 	eor.w	r3, r6, r5
      uint32_t S0 = ((a>>2)|(a<<30)) ^ ((a>>13)|(a<<19)) ^ ((a>>22)|(a<<10));
 8000918:	ea4f 3a70 	mov.w	sl, r0, ror #13
      h = g; g = f; f = e; e = d + T1; d = c; c = b; b = a; a = T1 + T2;
 800091c:	9f08      	ldr	r7, [sp, #32]
 800091e:	9508      	str	r5, [sp, #32]
      uint32_t maj = (a & b) ^ (a & c) ^ (b & c);
 8000920:	ea06 0b05 	and.w	fp, r6, r5
      uint32_t S0 = ((a>>2)|(a<<30)) ^ ((a>>13)|(a<<19)) ^ ((a>>22)|(a<<10));
 8000924:	ea8a 0ab0 	eor.w	sl, sl, r0, ror #2
      uint32_t maj = (a & b) ^ (a & c) ^ (b & c);
 8000928:	4003      	ands	r3, r0
      uint32_t S0 = ((a>>2)|(a<<30)) ^ ((a>>13)|(a<<19)) ^ ((a>>22)|(a<<10));
 800092a:	ea8a 5ab0 	eor.w	sl, sl, r0, ror #22
      uint32_t maj = (a & b) ^ (a & c) ^ (b & c);
 800092e:	ea83 030b 	eor.w	r3, r3, fp
    for (j = 0; j < 64; j++) {
 8000932:	f108 0801 	add.w	r8, r8, #1
      T2 = S0 + maj;
 8000936:	4453      	add	r3, sl
      h = g; g = f; f = e; e = d + T1; d = c; c = b; b = a; a = T1 + T2;
 8000938:	4417      	add	r7, r2
    for (j = 0; j < 64; j++) {
 800093a:	f1b8 0f40 	cmp.w	r8, #64	@ 0x40
      h = g; g = f; f = e; e = d + T1; d = c; c = b; b = a; a = T1 + T2;
 800093e:	46bb      	mov	fp, r7
 8000940:	4413      	add	r3, r2
    for (j = 0; j < 64; j++) {
 8000942:	46e2      	mov	sl, ip
 8000944:	d117      	bne.n	8000976 <sha256_compute+0x476>
    H[0] += a; H[1] += b; H[2] += c; H[3] += d;
 8000946:	4499      	add	r9, r3
 8000948:	9b00      	ldr	r3, [sp, #0]
 800094a:	4403      	add	r3, r0
 800094c:	9300      	str	r3, [sp, #0]
 800094e:	9b01      	ldr	r3, [sp, #4]
 8000950:	4433      	add	r3, r6
 8000952:	9301      	str	r3, [sp, #4]
 8000954:	9b02      	ldr	r3, [sp, #8]
 8000956:	442b      	add	r3, r5
 8000958:	9302      	str	r3, [sp, #8]
    H[4] += e; H[5] += f; H[6] += g; H[7] += h;
 800095a:	9b03      	ldr	r3, [sp, #12]
 800095c:	443b      	add	r3, r7
 800095e:	9303      	str	r3, [sp, #12]
 8000960:	9b04      	ldr	r3, [sp, #16]
 8000962:	440b      	add	r3, r1
 8000964:	9304      	str	r3, [sp, #16]
 8000966:	9b06      	ldr	r3, [sp, #24]
 8000968:	4473      	add	r3, lr
 800096a:	9306      	str	r3, [sp, #24]
 800096c:	9b05      	ldr	r3, [sp, #20]
 800096e:	4463      	add	r3, ip
 8000970:	9305      	str	r3, [sp, #20]
 8000972:	2301      	movs	r3, #1
 8000974:	e5ed      	b.n	8000552 <sha256_compute+0x52>
 8000976:	46f4      	mov	ip, lr
 8000978:	4635      	mov	r5, r6
 800097a:	468e      	mov	lr, r1
 800097c:	4606      	mov	r6, r0
 800097e:	4659      	mov	r1, fp
 8000980:	4618      	mov	r0, r3
 8000982:	e7af      	b.n	80008e4 <sha256_compute+0x3e4>
  for (i = 0; i < len; i++) block[i] = data[i];
 8000984:	f813 5b01 	ldrb.w	r5, [r3], #1
 8000988:	f800 5b01 	strb.w	r5, [r0], #1
 800098c:	e5fc      	b.n	8000588 <sha256_compute+0x88>
 800098e:	4667      	mov	r7, ip
 8000990:	4635      	mov	r5, r6
 8000992:	4684      	mov	ip, r0
 8000994:	4626      	mov	r6, r4
 8000996:	4658      	mov	r0, fp
 8000998:	461c      	mov	r4, r3
 800099a:	e650      	b.n	800063e <sha256_compute+0x13e>
  while (len < 56) block[len++] = 0;
 800099c:	541a      	strb	r2, [r3, r0]
 800099e:	3301      	adds	r3, #1
 80009a0:	e69a      	b.n	80006d8 <sha256_compute+0x1d8>
 80009a2:	463e      	mov	r6, r7
 80009a4:	462c      	mov	r4, r5
 80009a6:	460f      	mov	r7, r1
 80009a8:	4605      	mov	r5, r0
 80009aa:	4659      	mov	r1, fp
 80009ac:	4618      	mov	r0, r3
 80009ae:	e70b      	b.n	80007c8 <sha256_compute+0x2c8>
 80009b0:	08002604 	.word	0x08002604

080009b4 <SystemClock_Config>:
/**
  * @brief System Clock Configuration
  * @retval None
  */
void SystemClock_Config(void)
{
 80009b4:	b510      	push	{r4, lr}
 80009b6:	b094      	sub	sp, #80	@ 0x50
  RCC_OscInitTypeDef RCC_OscInitStruct = {0};
 80009b8:	2210      	movs	r2, #16
 80009ba:	2100      	movs	r1, #0
 80009bc:	a80a      	add	r0, sp, #40	@ 0x28
 80009be:	f001 fd0f 	bl	80023e0 <memset>
  RCC_ClkInitTypeDef RCC_ClkInitStruct = {0};
 80009c2:	2214      	movs	r2, #20
 80009c4:	2100      	movs	r1, #0
 80009c6:	a803      	add	r0, sp, #12
 80009c8:	f001 fd0a 	bl	80023e0 <memset>

  /** Configure the main internal regulator output voltage
  */
  __HAL_RCC_PWR_CLK_ENABLE();
 80009cc:	4b20      	ldr	r3, [pc, #128]	@ (8000a50 <SystemClock_Config+0x9c>)
 80009ce:	2100      	movs	r1, #0
 80009d0:	9101      	str	r1, [sp, #4]
 80009d2:	6c1a      	ldr	r2, [r3, #64]	@ 0x40
 80009d4:	f042 5280 	orr.w	r2, r2, #268435456	@ 0x10000000
 80009d8:	641a      	str	r2, [r3, #64]	@ 0x40
 80009da:	6c1b      	ldr	r3, [r3, #64]	@ 0x40
  __HAL_PWR_VOLTAGESCALING_CONFIG(PWR_REGULATOR_VOLTAGE_SCALE2);
 80009dc:	4a1d      	ldr	r2, [pc, #116]	@ (8000a54 <SystemClock_Config+0xa0>)
  __HAL_RCC_PWR_CLK_ENABLE();
 80009de:	f003 5380 	and.w	r3, r3, #268435456	@ 0x10000000
 80009e2:	9301      	str	r3, [sp, #4]
 80009e4:	9b01      	ldr	r3, [sp, #4]
  __HAL_PWR_VOLTAGESCALING_CONFIG(PWR_REGULATOR_VOLTAGE_SCALE2);
 80009e6:	9102      	str	r1, [sp, #8]
 80009e8:	6813      	ldr	r3, [r2, #0]
 80009ea:	f423 4340 	bic.w	r3, r3, #49152	@ 0xc000
 80009ee:	f443 4300 	orr.w	r3, r3, #32768	@ 0x8000
 80009f2:	6013      	str	r3, [r2, #0]
 80009f4:	6813      	ldr	r3, [r2, #0]
 80009f6:	f403 4340 	and.w	r3, r3, #49152	@ 0xc000
 80009fa:	9302      	str	r3, [sp, #8]
 80009fc:	9b02      	ldr	r3, [sp, #8]

  /** Initializes the RCC Oscillators according to the specified parameters
  * in the RCC_OscInitTypeDef structure.
  */
  RCC_OscInitStruct.OscillatorType = RCC_OSCILLATORTYPE_HSE;
  RCC_OscInitStruct.HSEState = RCC_HSE_ON;
 80009fe:	2201      	movs	r2, #1
 8000a00:	f44f 3380 	mov.w	r3, #65536	@ 0x10000
  RCC_OscInitStruct.PLL.PLLState = RCC_PLL_ON;
  RCC_OscInitStruct.PLL.PLLSource = RCC_PLLSOURCE_HSE;
 8000a04:	2402      	movs	r4, #2
  RCC_OscInitStruct.HSEState = RCC_HSE_ON;
 8000a06:	e9cd 2308 	strd	r2, r3, [sp, #32]
  RCC_OscInitStruct.PLL.PLLSource = RCC_PLLSOURCE_HSE;
 8000a0a:	f44f 0380 	mov.w	r3, #4194304	@ 0x400000
 8000a0e:	e9cd 430e 	strd	r4, r3, [sp, #56]	@ 0x38
  RCC_OscInitStruct.PLL.PLLM = 12;
  RCC_OscInitStruct.PLL.PLLN = 72;
 8000a12:	210c      	movs	r1, #12
 8000a14:	2348      	movs	r3, #72	@ 0x48
 8000a16:	e9cd 1310 	strd	r1, r3, [sp, #64]	@ 0x40
  RCC_OscInitStruct.PLL.PLLP = RCC_PLLP_DIV2;
  RCC_OscInitStruct.PLL.PLLQ = 7;
  if (HAL_RCC_OscConfig(&RCC_OscInitStruct) != HAL_OK)
 8000a1a:	a808      	add	r0, sp, #32
  RCC_OscInitStruct.PLL.PLLQ = 7;
 8000a1c:	2307      	movs	r3, #7
  RCC_OscInitStruct.PLL.PLLP = RCC_PLLP_DIV2;
 8000a1e:	9412      	str	r4, [sp, #72]	@ 0x48
  RCC_OscInitStruct.PLL.PLLQ = 7;
 8000a20:	9313      	str	r3, [sp, #76]	@ 0x4c
  if (HAL_RCC_OscConfig(&RCC_OscInitStruct) != HAL_OK)
 8000a22:	f001 f839 	bl	8001a98 <HAL_RCC_OscConfig>
 8000a26:	b108      	cbz	r0, 8000a2c <SystemClock_Config+0x78>
  \details Disables IRQ interrupts by setting special-purpose register PRIMASK.
           Can only be executed in Privileged modes.
 */
__STATIC_FORCEINLINE void __disable_irq(void)
{
  __ASM volatile ("cpsid i" : : : "memory");
 8000a28:	b672      	cpsid	i
void Error_Handler(void)
{
  /* USER CODE BEGIN Error_Handler_Debug */
  /* User can add his own implementation to report the HAL error return state */
  __disable_irq();
  while (1)
 8000a2a:	e7fe      	b.n	8000a2a <SystemClock_Config+0x76>
  RCC_ClkInitStruct.ClockType = RCC_CLOCKTYPE_HCLK|RCC_CLOCKTYPE_SYSCLK
 8000a2c:	230f      	movs	r3, #15
  RCC_ClkInitStruct.SYSCLKSource = RCC_SYSCLKSOURCE_PLLCLK;
 8000a2e:	e9cd 3403 	strd	r3, r4, [sp, #12]
  RCC_ClkInitStruct.APB1CLKDivider = RCC_HCLK_DIV2;
 8000a32:	f44f 5380 	mov.w	r3, #4096	@ 0x1000
  RCC_ClkInitStruct.APB2CLKDivider = RCC_HCLK_DIV1;
 8000a36:	e9cd 3006 	strd	r3, r0, [sp, #24]
  RCC_ClkInitStruct.AHBCLKDivider = RCC_SYSCLK_DIV1;
 8000a3a:	9005      	str	r0, [sp, #20]
  if (HAL_RCC_ClockConfig(&RCC_ClkInitStruct, FLASH_LATENCY_2) != HAL_OK)
 8000a3c:	4621      	mov	r1, r4
 8000a3e:	a803      	add	r0, sp, #12
 8000a40:	f001 fa7c 	bl	8001f3c <HAL_RCC_ClockConfig>
 8000a44:	b108      	cbz	r0, 8000a4a <SystemClock_Config+0x96>
 8000a46:	b672      	cpsid	i
  while (1)
 8000a48:	e7fe      	b.n	8000a48 <SystemClock_Config+0x94>
}
 8000a4a:	b014      	add	sp, #80	@ 0x50
 8000a4c:	bd10      	pop	{r4, pc}
 8000a4e:	bf00      	nop
 8000a50:	40023800 	.word	0x40023800
 8000a54:	40007000 	.word	0x40007000

08000a58 <main>:
{
 8000a58:	e92d 4880 	stmdb	sp!, {r7, fp, lr}
  GPIO_InitTypeDef GPIO_InitStruct = {0};
 8000a5c:	2400      	movs	r4, #0
{
 8000a5e:	b097      	sub	sp, #92	@ 0x5c
  HAL_Init();
 8000a60:	f000 fb3a 	bl	80010d8 <HAL_Init>
  SystemClock_Config();
 8000a64:	f7ff ffa6 	bl	80009b4 <SystemClock_Config>
  GPIO_InitTypeDef GPIO_InitStruct = {0};
 8000a68:	e9cd 4410 	strd	r4, r4, [sp, #64]	@ 0x40
  __HAL_RCC_GPIOC_CLK_ENABLE();
 8000a6c:	4bb5      	ldr	r3, [pc, #724]	@ (8000d44 <main+0x2ec>)
 8000a6e:	9404      	str	r4, [sp, #16]
  GPIO_InitTypeDef GPIO_InitStruct = {0};
 8000a70:	9412      	str	r4, [sp, #72]	@ 0x48
  __HAL_RCC_GPIOC_CLK_ENABLE();
 8000a72:	6b1a      	ldr	r2, [r3, #48]	@ 0x30
 8000a74:	f042 0204 	orr.w	r2, r2, #4
 8000a78:	631a      	str	r2, [r3, #48]	@ 0x30
 8000a7a:	6b1a      	ldr	r2, [r3, #48]	@ 0x30
 8000a7c:	f002 0204 	and.w	r2, r2, #4
 8000a80:	9204      	str	r2, [sp, #16]
 8000a82:	9a04      	ldr	r2, [sp, #16]
  __HAL_RCC_GPIOH_CLK_ENABLE();
 8000a84:	9405      	str	r4, [sp, #20]
 8000a86:	6b1a      	ldr	r2, [r3, #48]	@ 0x30
 8000a88:	f042 0280 	orr.w	r2, r2, #128	@ 0x80
 8000a8c:	631a      	str	r2, [r3, #48]	@ 0x30
 8000a8e:	6b1a      	ldr	r2, [r3, #48]	@ 0x30
 8000a90:	f002 0280 	and.w	r2, r2, #128	@ 0x80
 8000a94:	9205      	str	r2, [sp, #20]
 8000a96:	9a05      	ldr	r2, [sp, #20]
  __HAL_RCC_GPIOA_CLK_ENABLE();
 8000a98:	9406      	str	r4, [sp, #24]
 8000a9a:	6b1a      	ldr	r2, [r3, #48]	@ 0x30
 8000a9c:	f042 0201 	orr.w	r2, r2, #1
 8000aa0:	631a      	str	r2, [r3, #48]	@ 0x30
 8000aa2:	6b1a      	ldr	r2, [r3, #48]	@ 0x30
 8000aa4:	f002 0201 	and.w	r2, r2, #1
 8000aa8:	9206      	str	r2, [sp, #24]
 8000aaa:	9a06      	ldr	r2, [sp, #24]
  __HAL_RCC_GPIOB_CLK_ENABLE();
 8000aac:	9407      	str	r4, [sp, #28]
 8000aae:	6b1a      	ldr	r2, [r3, #48]	@ 0x30
 8000ab0:	f042 0202 	orr.w	r2, r2, #2
 8000ab4:	631a      	str	r2, [r3, #48]	@ 0x30
 8000ab6:	6b1a      	ldr	r2, [r3, #48]	@ 0x30
 8000ab8:	f002 0202 	and.w	r2, r2, #2
 8000abc:	9207      	str	r2, [sp, #28]
 8000abe:	9a07      	ldr	r2, [sp, #28]
  __HAL_RCC_GPIOD_CLK_ENABLE();
 8000ac0:	9408      	str	r4, [sp, #32]
 8000ac2:	6b1a      	ldr	r2, [r3, #48]	@ 0x30
 8000ac4:	f042 0208 	orr.w	r2, r2, #8
 8000ac8:	631a      	str	r2, [r3, #48]	@ 0x30
 8000aca:	6b1b      	ldr	r3, [r3, #48]	@ 0x30
 8000acc:	f003 0308 	and.w	r3, r3, #8
 8000ad0:	9308      	str	r3, [sp, #32]
 8000ad2:	9b08      	ldr	r3, [sp, #32]
  GPIO_InitStruct.Mode = GPIO_MODE_IT_FALLING;
 8000ad4:	f44f 5000 	mov.w	r0, #8192	@ 0x2000
 8000ad8:	f44f 1304 	mov.w	r3, #2162688	@ 0x210000
 8000adc:	e9cd 030e 	strd	r0, r3, [sp, #56]	@ 0x38
  HAL_GPIO_Init(B1_GPIO_Port, &GPIO_InitStruct);
 8000ae0:	a90e      	add	r1, sp, #56	@ 0x38
 8000ae2:	4899      	ldr	r0, [pc, #612]	@ (8000d48 <main+0x2f0>)
 8000ae4:	f000 fe04 	bl	80016f0 <HAL_GPIO_Init>
  GPIO_InitStruct.Mode = GPIO_MODE_ANALOG;
 8000ae8:	2503      	movs	r5, #3
 8000aea:	f641 73ff 	movw	r3, #8191	@ 0x1fff
  HAL_GPIO_Init(GPIOC, &GPIO_InitStruct);
 8000aee:	4896      	ldr	r0, [pc, #600]	@ (8000d48 <main+0x2f0>)
  GPIO_InitStruct.Pull = GPIO_NOPULL;
 8000af0:	9410      	str	r4, [sp, #64]	@ 0x40
  HAL_GPIO_Init(GPIOC, &GPIO_InitStruct);
 8000af2:	a90e      	add	r1, sp, #56	@ 0x38
  GPIO_InitStruct.Mode = GPIO_MODE_ANALOG;
 8000af4:	e9cd 350e 	strd	r3, r5, [sp, #56]	@ 0x38
  HAL_GPIO_Init(GPIOC, &GPIO_InitStruct);
 8000af8:	f000 fdfa 	bl	80016f0 <HAL_GPIO_Init>
  GPIO_InitStruct.Pin = GPIO_PIN_0|GPIO_PIN_1|GPIO_PIN_4|GPIO_PIN_5
 8000afc:	f649 13f3 	movw	r3, #39411	@ 0x99f3
  HAL_GPIO_Init(GPIOA, &GPIO_InitStruct);
 8000b00:	4892      	ldr	r0, [pc, #584]	@ (8000d4c <main+0x2f4>)
  GPIO_InitStruct.Pull = GPIO_NOPULL;
 8000b02:	9410      	str	r4, [sp, #64]	@ 0x40
  HAL_GPIO_Init(GPIOA, &GPIO_InitStruct);
 8000b04:	a90e      	add	r1, sp, #56	@ 0x38
  GPIO_InitStruct.Mode = GPIO_MODE_ANALOG;
 8000b06:	e9cd 350e 	strd	r3, r5, [sp, #56]	@ 0x38
  HAL_GPIO_Init(GPIOA, &GPIO_InitStruct);
 8000b0a:	f000 fdf1 	bl	80016f0 <HAL_GPIO_Init>
  GPIO_InitStruct.Pin = GPIO_PIN_0|GPIO_PIN_1|GPIO_PIN_2|GPIO_PIN_10
 8000b0e:	f24f 73f7 	movw	r3, #63479	@ 0xf7f7
  HAL_GPIO_Init(GPIOB, &GPIO_InitStruct);
 8000b12:	488f      	ldr	r0, [pc, #572]	@ (8000d50 <main+0x2f8>)
  GPIO_InitStruct.Pull = GPIO_NOPULL;
 8000b14:	9410      	str	r4, [sp, #64]	@ 0x40
  HAL_GPIO_Init(GPIOB, &GPIO_InitStruct);
 8000b16:	a90e      	add	r1, sp, #56	@ 0x38
  GPIO_InitStruct.Mode = GPIO_MODE_ANALOG;
 8000b18:	e9cd 350e 	strd	r3, r5, [sp, #56]	@ 0x38
  HAL_GPIO_Init(GPIOB, &GPIO_InitStruct);
 8000b1c:	f000 fde8 	bl	80016f0 <HAL_GPIO_Init>
  GPIO_InitStruct.Pin = GPIO_PIN_2;
 8000b20:	2304      	movs	r3, #4
  HAL_GPIO_Init(GPIOD, &GPIO_InitStruct);
 8000b22:	488c      	ldr	r0, [pc, #560]	@ (8000d54 <main+0x2fc>)
  GPIO_InitStruct.Pull = GPIO_NOPULL;
 8000b24:	9410      	str	r4, [sp, #64]	@ 0x40
  HAL_GPIO_Init(GPIOD, &GPIO_InitStruct);
 8000b26:	a90e      	add	r1, sp, #56	@ 0x38
  GPIO_InitStruct.Mode = GPIO_MODE_ANALOG;
 8000b28:	e9cd 350e 	strd	r3, r5, [sp, #56]	@ 0x38
  HAL_GPIO_Init(GPIOD, &GPIO_InitStruct);
 8000b2c:	f000 fde0 	bl	80016f0 <HAL_GPIO_Init>
  huart2.Instance = USART2;
 8000b30:	4889      	ldr	r0, [pc, #548]	@ (8000d58 <main+0x300>)
  huart2.Init.BaudRate = 115200;
 8000b32:	4b8a      	ldr	r3, [pc, #552]	@ (8000d5c <main+0x304>)
  huart2.Init.Parity = UART_PARITY_NONE;
 8000b34:	6104      	str	r4, [r0, #16]
  huart2.Init.BaudRate = 115200;
 8000b36:	f44f 36e1 	mov.w	r6, #115200	@ 0x1c200
  huart2.Init.Mode = UART_MODE_TX_RX;
 8000b3a:	250c      	movs	r5, #12
  huart2.Init.BaudRate = 115200;
 8000b3c:	e9c0 3600 	strd	r3, r6, [r0]
  huart2.Init.StopBits = UART_STOPBITS_1;
 8000b40:	e9c0 4402 	strd	r4, r4, [r0, #8]
  huart2.Init.HwFlowCtl = UART_HWCONTROL_NONE;
 8000b44:	e9c0 5405 	strd	r5, r4, [r0, #20]
  huart2.Init.OverSampling = UART_OVERSAMPLING_16;
 8000b48:	61c4      	str	r4, [r0, #28]
  if (HAL_UART_Init(&huart2) != HAL_OK)
 8000b4a:	f001 fb97 	bl	800227c <HAL_UART_Init>
 8000b4e:	4603      	mov	r3, r0
 8000b50:	b108      	cbz	r0, 8000b56 <main+0xfe>
 8000b52:	b672      	cpsid	i
  while (1)
 8000b54:	e7fe      	b.n	8000b54 <main+0xfc>
  huart1.Instance = USART1;
 8000b56:	4882      	ldr	r0, [pc, #520]	@ (8000d60 <main+0x308>)
 8000b58:	4a82      	ldr	r2, [pc, #520]	@ (8000d64 <main+0x30c>)
  huart1.Init.StopBits = UART_STOPBITS_1;
 8000b5a:	e9c0 3302 	strd	r3, r3, [r0, #8]
  huart1.Init.BaudRate = 115200;
 8000b5e:	e9c0 2600 	strd	r2, r6, [r0]
  huart1.Init.Mode = UART_MODE_TX_RX;
 8000b62:	e9c0 3504 	strd	r3, r5, [r0, #16]
  huart1.Init.OverSampling = UART_OVERSAMPLING_16;
 8000b66:	e9c0 3306 	strd	r3, r3, [r0, #24]
  if (HAL_UART_Init(&huart1) != HAL_OK)
 8000b6a:	f001 fb87 	bl	800227c <HAL_UART_Init>
 8000b6e:	b108      	cbz	r0, 8000b74 <main+0x11c>
 8000b70:	b672      	cpsid	i
  while (1)
 8000b72:	e7fe      	b.n	8000b72 <main+0x11a>
 8000b74:	4e7c      	ldr	r6, [pc, #496]	@ (8000d68 <main+0x310>)
    if (memcmp(meta->magic, APP_METADATA_MAGIC, APP_METADATA_FIELD_LEN) != 0) continue;
 8000b76:	497d      	ldr	r1, [pc, #500]	@ (8000d6c <main+0x314>)
 8000b78:	2208      	movs	r2, #8
 8000b7a:	4630      	mov	r0, r6
 8000b7c:	f001 fc20 	bl	80023c0 <memcmp>
 8000b80:	2800      	cmp	r0, #0
 8000b82:	d141      	bne.n	8000c08 <main+0x1b0>
    if (memcmp(meta->inverted_magic, APP_METADATA_INV_MAGIC, APP_METADATA_FIELD_LEN) != 0) continue;
 8000b84:	2208      	movs	r2, #8
 8000b86:	497a      	ldr	r1, [pc, #488]	@ (8000d70 <main+0x318>)
 8000b88:	18b0      	adds	r0, r6, r2
 8000b8a:	f001 fc19 	bl	80023c0 <memcmp>
 8000b8e:	2800      	cmp	r0, #0
 8000b90:	d13a      	bne.n	8000c08 <main+0x1b0>
    uint32_t app_size = (uint32_t)meta->size[0] | ((uint32_t)meta->size[1] << 8) |
 8000b92:	e9d6 5a08 	ldrd	r5, sl, [r6, #32]
    if (dest_addr < 0x08004000UL || dest_addr > 0x0807FFFFUL) continue;
 8000b96:	f105 4378 	add.w	r3, r5, #4160749568	@ 0xf8000000
 8000b9a:	f5a3 4380 	sub.w	r3, r3, #16384	@ 0x4000
 8000b9e:	f5b3 2ff8 	cmp.w	r3, #507904	@ 0x7c000
 8000ba2:	d231      	bcs.n	8000c08 <main+0x1b0>
    if (dest_addr >= 0x08040000UL && dest_addr < 0x08060000UL) continue;  /* reject sector 6 */
 8000ba4:	f105 4377 	add.w	r3, r5, #4143972352	@ 0xf7000000
 8000ba8:	f503 037c 	add.w	r3, r3, #16515072	@ 0xfc0000
 8000bac:	f5b3 3f00 	cmp.w	r3, #131072	@ 0x20000
 8000bb0:	d32a      	bcc.n	8000c08 <main+0x1b0>
    if (app_size == 0 || app_size > STAGING_SECTOR_SIZE) continue;
 8000bb2:	f10a 33ff 	add.w	r3, sl, #4294967295
 8000bb6:	f5b3 3f00 	cmp.w	r3, #131072	@ 0x20000
 8000bba:	d225      	bcs.n	8000c08 <main+0x1b0>
  if (addr < 0x08008000UL) return FLASH_SECTOR_1;
 8000bbc:	4b6d      	ldr	r3, [pc, #436]	@ (8000d74 <main+0x31c>)
 8000bbe:	429d      	cmp	r5, r3
 8000bc0:	d339      	bcc.n	8000c36 <main+0x1de>
  if (addr < 0x0800C000UL) return FLASH_SECTOR_2;
 8000bc2:	f503 4380 	add.w	r3, r3, #16384	@ 0x4000
 8000bc6:	429d      	cmp	r5, r3
 8000bc8:	d337      	bcc.n	8000c3a <main+0x1e2>
  if (addr < 0x08010000UL) return FLASH_SECTOR_3;
 8000bca:	4b6b      	ldr	r3, [pc, #428]	@ (8000d78 <main+0x320>)
 8000bcc:	429d      	cmp	r5, r3
 8000bce:	d936      	bls.n	8000c3e <main+0x1e6>
  if (addr < 0x08020000UL) return FLASH_SECTOR_4;
 8000bd0:	f503 3380 	add.w	r3, r3, #65536	@ 0x10000
 8000bd4:	429d      	cmp	r5, r3
 8000bd6:	d934      	bls.n	8000c42 <main+0x1ea>
  if (addr < 0x08040000UL) return FLASH_SECTOR_5;
 8000bd8:	f503 3300 	add.w	r3, r3, #131072	@ 0x20000
 8000bdc:	429d      	cmp	r5, r3
 8000bde:	bf8c      	ite	hi
 8000be0:	2307      	movhi	r3, #7
 8000be2:	2305      	movls	r3, #5
    FLASH_EraseInitTypeDef erase = {
 8000be4:	2201      	movs	r2, #1
 8000be6:	e9cd 320b 	strd	r3, r2, [sp, #44]	@ 0x2c
 8000bea:	2100      	movs	r1, #0
 8000bec:	2302      	movs	r3, #2
 8000bee:	e9cd 1209 	strd	r1, r2, [sp, #36]	@ 0x24
 8000bf2:	930d      	str	r3, [sp, #52]	@ 0x34
    HAL_FLASH_Unlock();
 8000bf4:	f000 fc0a 	bl	800140c <HAL_FLASH_Unlock>
    if (HAL_FLASHEx_Erase(&erase, &sector_error) != HAL_OK) {
 8000bf8:	a903      	add	r1, sp, #12
 8000bfa:	a809      	add	r0, sp, #36	@ 0x24
 8000bfc:	f000 fd14 	bl	8001628 <HAL_FLASHEx_Erase>
 8000c00:	4604      	mov	r4, r0
 8000c02:	b300      	cbz	r0, 8000c46 <main+0x1ee>
      HAL_FLASH_Lock();
 8000c04:	f000 fc14 	bl	8001430 <HAL_FLASH_Lock>
  for (uint32_t offset = 0; offset + sizeof(AppMetadata_t) <= STAGING_SECTOR_SIZE; offset += 8) {
 8000c08:	4b5c      	ldr	r3, [pc, #368]	@ (8000d7c <main+0x324>)
 8000c0a:	3608      	adds	r6, #8
 8000c0c:	429e      	cmp	r6, r3
 8000c0e:	d1b2      	bne.n	8000b76 <main+0x11e>
 8000c10:	4e5b      	ldr	r6, [pc, #364]	@ (8000d80 <main+0x328>)
  for (uint32_t s = 0; s < NUM_APP_SECTORS; s++) {
 8000c12:	2700      	movs	r7, #0
    const uint32_t sector_size = SECTOR_INFO[s].size;
 8000c14:	e9d6 4300 	ldrd	r4, r3, [r6]
    for (uint32_t offset = 0; offset + sizeof(AppMetadata_t) <= sector_size; offset += 8) {
 8000c18:	2538      	movs	r5, #56	@ 0x38
    const uint32_t sector_size = SECTOR_INFO[s].size;
 8000c1a:	9301      	str	r3, [sp, #4]
    for (uint32_t offset = 0; offset + sizeof(AppMetadata_t) <= sector_size; offset += 8) {
 8000c1c:	46a1      	mov	r9, r4
 8000c1e:	9a01      	ldr	r2, [sp, #4]
 8000c20:	f105 0320 	add.w	r3, r5, #32
 8000c24:	429a      	cmp	r2, r3
 8000c26:	f080 80b1 	bcs.w	8000d8c <main+0x334>
  for (uint32_t s = 0; s < NUM_APP_SECTORS; s++) {
 8000c2a:	3701      	adds	r7, #1
 8000c2c:	2f07      	cmp	r7, #7
 8000c2e:	f106 0608 	add.w	r6, r6, #8
 8000c32:	d1ef      	bne.n	8000c14 <main+0x1bc>
  while (1)
 8000c34:	e7fe      	b.n	8000c34 <main+0x1dc>
  if (addr < 0x08008000UL) return FLASH_SECTOR_1;
 8000c36:	2301      	movs	r3, #1
 8000c38:	e7d4      	b.n	8000be4 <main+0x18c>
  if (addr < 0x0800C000UL) return FLASH_SECTOR_2;
 8000c3a:	2302      	movs	r3, #2
 8000c3c:	e7d2      	b.n	8000be4 <main+0x18c>
  if (addr < 0x08010000UL) return FLASH_SECTOR_3;
 8000c3e:	2303      	movs	r3, #3
 8000c40:	e7d0      	b.n	8000be4 <main+0x18c>
  if (addr < 0x08020000UL) return FLASH_SECTOR_4;
 8000c42:	2304      	movs	r3, #4
 8000c44:	e7ce      	b.n	8000be4 <main+0x18c>
      uint32_t chunk = (i + 8 <= app_size) ? 8 : (app_size - i);
 8000c46:	4627      	mov	r7, r4
 8000c48:	3408      	adds	r4, #8
 8000c4a:	45a2      	cmp	sl, r4
      uint64_t data = 0;
 8000c4c:	f04f 0200 	mov.w	r2, #0
      uint32_t chunk = (i + 8 <= app_size) ? 8 : (app_size - i);
 8000c50:	bf38      	it	cc
 8000c52:	ebaa 0907 	subcc.w	r9, sl, r7
      for (uint32_t j = 0; j < chunk; j++) {
 8000c56:	f107 6700 	add.w	r7, r7, #134217728	@ 0x8000000
      uint32_t chunk = (i + 8 <= app_size) ? 8 : (app_size - i);
 8000c5a:	bf28      	it	cs
 8000c5c:	f04f 0908 	movcs.w	r9, #8
      uint64_t data = 0;
 8000c60:	4613      	mov	r3, r2
      for (uint32_t j = 0; j < chunk; j++) {
 8000c62:	4611      	mov	r1, r2
 8000c64:	f507 2780 	add.w	r7, r7, #262144	@ 0x40000
        data |= (uint64_t)src[i + j] << (j * 8);
 8000c68:	f817 c001 	ldrb.w	ip, [r7, r1]
 8000c6c:	ea4f 0ec1 	mov.w	lr, r1, lsl #3
 8000c70:	f1ae 0820 	sub.w	r8, lr, #32
 8000c74:	f1ce 0020 	rsb	r0, lr, #32
 8000c78:	fa0c f808 	lsl.w	r8, ip, r8
 8000c7c:	fa2c f000 	lsr.w	r0, ip, r0
      for (uint32_t j = 0; j < chunk; j++) {
 8000c80:	3101      	adds	r1, #1
        data |= (uint64_t)src[i + j] << (j * 8);
 8000c82:	ea48 0000 	orr.w	r0, r8, r0
 8000c86:	fa0c fc0e 	lsl.w	ip, ip, lr
      for (uint32_t j = 0; j < chunk; j++) {
 8000c8a:	4549      	cmp	r1, r9
        data |= (uint64_t)src[i + j] << (j * 8);
 8000c8c:	ea4c 0202 	orr.w	r2, ip, r2
 8000c90:	ea43 0300 	orr.w	r3, r3, r0
      for (uint32_t j = 0; j < chunk; j++) {
 8000c94:	d1e8      	bne.n	8000c68 <main+0x210>
        if (HAL_FLASH_Program(FLASH_TYPEPROGRAM_DOUBLEWORD, dst + i, data) != HAL_OK) {
 8000c96:	f1a5 0b08 	sub.w	fp, r5, #8
      if (chunk == 8) {
 8000c9a:	2908      	cmp	r1, #8
        if (HAL_FLASH_Program(FLASH_TYPEPROGRAM_DOUBLEWORD, dst + i, data) != HAL_OK) {
 8000c9c:	44a3      	add	fp, r4
      if (chunk == 8) {
 8000c9e:	d10c      	bne.n	8000cba <main+0x262>
        if (HAL_FLASH_Program(FLASH_TYPEPROGRAM_DOUBLEWORD, dst + i, data) != HAL_OK) {
 8000ca0:	4659      	mov	r1, fp
 8000ca2:	2003      	movs	r0, #3
 8000ca4:	f000 fbf6 	bl	8001494 <HAL_FLASH_Program>
          if (HAL_FLASH_Program(FLASH_TYPEPROGRAM_WORD, dst + i + j, w) != HAL_OK) copy_ok = 0;
 8000ca8:	fab0 f080 	clz	r0, r0
    for (uint32_t i = 0; i < app_size && copy_ok; i += 8) {
 8000cac:	45a2      	cmp	sl, r4
          if (HAL_FLASH_Program(FLASH_TYPEPROGRAM_WORD, dst + i + j, w) != HAL_OK) copy_ok = 0;
 8000cae:	ea4f 1050 	mov.w	r0, r0, lsr #5
    for (uint32_t i = 0; i < app_size && copy_ok; i += 8) {
 8000cb2:	d928      	bls.n	8000d06 <main+0x2ae>
 8000cb4:	2800      	cmp	r0, #0
 8000cb6:	d1c6      	bne.n	8000c46 <main+0x1ee>
 8000cb8:	e7a4      	b.n	8000c04 <main+0x1ac>
 8000cba:	f04f 0800 	mov.w	r8, #0
          uint32_t n = (j + 4 <= chunk) ? 4 : (chunk - j);
 8000cbe:	4641      	mov	r1, r8
 8000cc0:	f108 0804 	add.w	r8, r8, #4
 8000cc4:	45c8      	cmp	r8, r9
          uint32_t w = 0;
 8000cc6:	f04f 0200 	mov.w	r2, #0
          for (uint32_t k = 0; k < n; k++) w |= (uint32_t)src[i + j + k] << (k * 8);
 8000cca:	eb07 0001 	add.w	r0, r7, r1
          uint32_t n = (j + 4 <= chunk) ? 4 : (chunk - j);
 8000cce:	bf8c      	ite	hi
 8000cd0:	eba9 0c01 	subhi.w	ip, r9, r1
 8000cd4:	f04f 0c04 	movls.w	ip, #4
          for (uint32_t k = 0; k < n; k++) w |= (uint32_t)src[i + j + k] << (k * 8);
 8000cd8:	4613      	mov	r3, r2
 8000cda:	9001      	str	r0, [sp, #4]
 8000cdc:	9801      	ldr	r0, [sp, #4]
 8000cde:	5cc0      	ldrb	r0, [r0, r3]
 8000ce0:	ea4f 0ec3 	mov.w	lr, r3, lsl #3
 8000ce4:	3301      	adds	r3, #1
 8000ce6:	fa00 f00e 	lsl.w	r0, r0, lr
 8000cea:	459c      	cmp	ip, r3
 8000cec:	ea42 0200 	orr.w	r2, r2, r0
 8000cf0:	d1f4      	bne.n	8000cdc <main+0x284>
          if (HAL_FLASH_Program(FLASH_TYPEPROGRAM_WORD, dst + i + j, w) != HAL_OK) copy_ok = 0;
 8000cf2:	2300      	movs	r3, #0
 8000cf4:	4459      	add	r1, fp
 8000cf6:	2002      	movs	r0, #2
 8000cf8:	f000 fbcc 	bl	8001494 <HAL_FLASH_Program>
        for (uint32_t j = 0; j < chunk && copy_ok; j += 4) {
 8000cfc:	45c8      	cmp	r8, r9
 8000cfe:	d2d3      	bcs.n	8000ca8 <main+0x250>
 8000d00:	2800      	cmp	r0, #0
 8000d02:	d0dc      	beq.n	8000cbe <main+0x266>
 8000d04:	e77e      	b.n	8000c04 <main+0x1ac>
    if (!copy_ok) {
 8000d06:	2800      	cmp	r0, #0
 8000d08:	f43f af7c 	beq.w	8000c04 <main+0x1ac>
    uint32_t validation_addr = dest_addr + offset + (uint32_t)offsetof(AppMetadata_t, validation);
 8000d0c:	491d      	ldr	r1, [pc, #116]	@ (8000d84 <main+0x32c>)
 8000d0e:	1871      	adds	r1, r6, r1
    if (HAL_FLASH_Program(FLASH_TYPEPROGRAM_DOUBLEWORD, validation_addr, validation_val) != HAL_OK) {
 8000d10:	f04f 32ff 	mov.w	r2, #4294967295
 8000d14:	2300      	movs	r3, #0
 8000d16:	4429      	add	r1, r5
 8000d18:	2003      	movs	r0, #3
 8000d1a:	f000 fbbb 	bl	8001494 <HAL_FLASH_Program>
 8000d1e:	2800      	cmp	r0, #0
 8000d20:	f47f af70 	bne.w	8000c04 <main+0x1ac>
    FLASH_EraseInitTypeDef erase6 = {
 8000d24:	4d18      	ldr	r5, [pc, #96]	@ (8000d88 <main+0x330>)
 8000d26:	cd0f      	ldmia	r5!, {r0, r1, r2, r3}
 8000d28:	ac0e      	add	r4, sp, #56	@ 0x38
 8000d2a:	c40f      	stmia	r4!, {r0, r1, r2, r3}
 8000d2c:	682b      	ldr	r3, [r5, #0]
 8000d2e:	6023      	str	r3, [r4, #0]
    HAL_FLASHEx_Erase(&erase6, &sector_error);
 8000d30:	a903      	add	r1, sp, #12
 8000d32:	a80e      	add	r0, sp, #56	@ 0x38
 8000d34:	f000 fc78 	bl	8001628 <HAL_FLASHEx_Erase>
    HAL_FLASH_Lock();
 8000d38:	f000 fb7a 	bl	8001430 <HAL_FLASH_Lock>
    HAL_NVIC_SystemReset();
 8000d3c:	f000 fa58 	bl	80011f0 <HAL_NVIC_SystemReset>
 8000d40:	e762      	b.n	8000c08 <main+0x1b0>
 8000d42:	bf00      	nop
 8000d44:	40023800 	.word	0x40023800
 8000d48:	40020800 	.word	0x40020800
 8000d4c:	40020000 	.word	0x40020000
 8000d50:	40020400 	.word	0x40020400
 8000d54:	40020c00 	.word	0x40020c00
 8000d58:	20000048 	.word	0x20000048
 8000d5c:	40004400 	.word	0x40004400
 8000d60:	20000090 	.word	0x20000090
 8000d64:	40011000 	.word	0x40011000
 8000d68:	08040000 	.word	0x08040000
 8000d6c:	08002496 	.word	0x08002496
 8000d70:	0800249f 	.word	0x0800249f
 8000d74:	08008000 	.word	0x08008000
 8000d78:	0800ffff 	.word	0x0800ffff
 8000d7c:	0805ffb0 	.word	0x0805ffb0
 8000d80:	08002704 	.word	0x08002704
 8000d84:	f7fc0028 	.word	0xf7fc0028
 8000d88:	08002470 	.word	0x08002470
      if (memcmp(meta->magic, APP_METADATA_MAGIC, APP_METADATA_FIELD_LEN) != 0) continue;
 8000d8c:	4947      	ldr	r1, [pc, #284]	@ (8000eac <main+0x454>)
 8000d8e:	2208      	movs	r2, #8
 8000d90:	4648      	mov	r0, r9
 8000d92:	f001 fb15 	bl	80023c0 <memcmp>
 8000d96:	f109 0808 	add.w	r8, r9, #8
 8000d9a:	2800      	cmp	r0, #0
 8000d9c:	f040 8083 	bne.w	8000ea6 <main+0x44e>
      if (memcmp(meta->inverted_magic, APP_METADATA_INV_MAGIC, APP_METADATA_FIELD_LEN) != 0) continue;
 8000da0:	4943      	ldr	r1, [pc, #268]	@ (8000eb0 <main+0x458>)
 8000da2:	2208      	movs	r2, #8
 8000da4:	4640      	mov	r0, r8
 8000da6:	f001 fb0b 	bl	80023c0 <memcmp>
 8000daa:	2800      	cmp	r0, #0
 8000dac:	d17b      	bne.n	8000ea6 <main+0x44e>
      if (memcmp(meta->validation, APP_METADATA_VALID, APP_METADATA_FIELD_LEN) != 0) continue;
 8000dae:	4941      	ldr	r1, [pc, #260]	@ (8000eb4 <main+0x45c>)
 8000db0:	2208      	movs	r2, #8
 8000db2:	f109 0028 	add.w	r0, r9, #40	@ 0x28
 8000db6:	f001 fb03 	bl	80023c0 <memcmp>
 8000dba:	2800      	cmp	r0, #0
 8000dbc:	d173      	bne.n	8000ea6 <main+0x44e>
      if (memcmp(meta->invalidation, APP_METADATA_INVALID, APP_METADATA_FIELD_LEN) != 0) continue;
 8000dbe:	493e      	ldr	r1, [pc, #248]	@ (8000eb8 <main+0x460>)
 8000dc0:	2208      	movs	r2, #8
 8000dc2:	f109 0030 	add.w	r0, r9, #48	@ 0x30
 8000dc6:	f001 fafb 	bl	80023c0 <memcmp>
 8000dca:	2800      	cmp	r0, #0
 8000dcc:	d16b      	bne.n	8000ea6 <main+0x44e>
      sha256_compute(sector, hash_len, computed);
 8000dce:	aa0e      	add	r2, sp, #56	@ 0x38
 8000dd0:	4629      	mov	r1, r5
 8000dd2:	4620      	mov	r0, r4
 8000dd4:	f7ff fb94 	bl	8000500 <sha256_compute>
      for (int i = 0; i < 32; i++) {
 8000dd8:	f109 0237 	add.w	r2, r9, #55	@ 0x37
 8000ddc:	ab0e      	add	r3, sp, #56	@ 0x38
 8000dde:	f109 0957 	add.w	r9, r9, #87	@ 0x57
        if (computed[i] != meta->sha256[i]) { match = 0; break; }
 8000de2:	f813 1b01 	ldrb.w	r1, [r3], #1
 8000de6:	f812 0f01 	ldrb.w	r0, [r2, #1]!
 8000dea:	4288      	cmp	r0, r1
 8000dec:	d15b      	bne.n	8000ea6 <main+0x44e>
      for (int i = 0; i < 32; i++) {
 8000dee:	454a      	cmp	r2, r9
 8000df0:	d1f7      	bne.n	8000de2 <main+0x38a>
  uint32_t reset_handler = vt[1];
 8000df2:	e9d4 9a00 	ldrd	r9, sl, [r4]
  if (msp < 0x20000000 || msp > 0x20018000) {
 8000df6:	f109 4360 	add.w	r3, r9, #3758096384	@ 0xe0000000
 8000dfa:	f5b3 3fc0 	cmp.w	r3, #98304	@ 0x18000
 8000dfe:	d852      	bhi.n	8000ea6 <main+0x44e>
  if ((reset_handler & 1) == 0) {
 8000e00:	f01a 0f01 	tst.w	sl, #1
 8000e04:	d04f      	beq.n	8000ea6 <main+0x44e>
  HAL_UART_DeInit(&huart1);
 8000e06:	482d      	ldr	r0, [pc, #180]	@ (8000ebc <main+0x464>)
 8000e08:	f001 faaa 	bl	8002360 <HAL_UART_DeInit>
  HAL_UART_DeInit(&huart2);
 8000e0c:	482c      	ldr	r0, [pc, #176]	@ (8000ec0 <main+0x468>)
 8000e0e:	f001 faa7 	bl	8002360 <HAL_UART_DeInit>
  HAL_GPIO_DeInit(GPIOC, B1_Pin|GPIO_PIN_0|GPIO_PIN_1|GPIO_PIN_2|GPIO_PIN_3|GPIO_PIN_4|GPIO_PIN_5|
 8000e12:	482c      	ldr	r0, [pc, #176]	@ (8000ec4 <main+0x46c>)
 8000e14:	f643 71ff 	movw	r1, #16383	@ 0x3fff
 8000e18:	f000 fda2 	bl	8001960 <HAL_GPIO_DeInit>
  HAL_GPIO_DeInit(GPIOA, GPIO_PIN_0|GPIO_PIN_1|GPIO_PIN_4|GPIO_PIN_5|GPIO_PIN_6|GPIO_PIN_7|
 8000e1c:	482a      	ldr	r0, [pc, #168]	@ (8000ec8 <main+0x470>)
 8000e1e:	f649 71f3 	movw	r1, #40947	@ 0x9ff3
 8000e22:	f000 fd9d 	bl	8001960 <HAL_GPIO_DeInit>
  HAL_GPIO_DeInit(GPIOB, GPIO_PIN_0|GPIO_PIN_1|GPIO_PIN_2|GPIO_PIN_4|GPIO_PIN_5|GPIO_PIN_6|
 8000e26:	4829      	ldr	r0, [pc, #164]	@ (8000ecc <main+0x474>)
 8000e28:	f24f 71f7 	movw	r1, #63479	@ 0xf7f7
 8000e2c:	f000 fd98 	bl	8001960 <HAL_GPIO_DeInit>
  HAL_GPIO_DeInit(GPIOD, GPIO_PIN_2);
 8000e30:	4827      	ldr	r0, [pc, #156]	@ (8000ed0 <main+0x478>)
 8000e32:	2104      	movs	r1, #4
 8000e34:	f000 fd94 	bl	8001960 <HAL_GPIO_DeInit>
  __HAL_RCC_HSI_ENABLE();
 8000e38:	4b26      	ldr	r3, [pc, #152]	@ (8000ed4 <main+0x47c>)
 8000e3a:	2201      	movs	r2, #1
 8000e3c:	601a      	str	r2, [r3, #0]
  while(__HAL_RCC_GET_FLAG(RCC_FLAG_HSIRDY) == RESET) {}
 8000e3e:	4b26      	ldr	r3, [pc, #152]	@ (8000ed8 <main+0x480>)
 8000e40:	681a      	ldr	r2, [r3, #0]
 8000e42:	0792      	lsls	r2, r2, #30
 8000e44:	d5fc      	bpl.n	8000e40 <main+0x3e8>
  __HAL_RCC_SYSCLK_CONFIG(RCC_SYSCLKSOURCE_HSI);
 8000e46:	689a      	ldr	r2, [r3, #8]
 8000e48:	f022 0203 	bic.w	r2, r2, #3
 8000e4c:	609a      	str	r2, [r3, #8]
  while(__HAL_RCC_GET_SYSCLK_SOURCE() != RCC_SYSCLKSOURCE_STATUS_HSI) {}
 8000e4e:	689a      	ldr	r2, [r3, #8]
 8000e50:	f012 020c 	ands.w	r2, r2, #12
 8000e54:	d1fb      	bne.n	8000e4e <main+0x3f6>
  __HAL_RCC_PLL_DISABLE();
 8000e56:	491f      	ldr	r1, [pc, #124]	@ (8000ed4 <main+0x47c>)
 8000e58:	660a      	str	r2, [r1, #96]	@ 0x60
  __HAL_RCC_HSE_CONFIG(RCC_HSE_OFF);
 8000e5a:	681a      	ldr	r2, [r3, #0]
 8000e5c:	f422 3280 	bic.w	r2, r2, #65536	@ 0x10000
 8000e60:	601a      	str	r2, [r3, #0]
 8000e62:	681a      	ldr	r2, [r3, #0]
 8000e64:	f422 2280 	bic.w	r2, r2, #262144	@ 0x40000
 8000e68:	601a      	str	r2, [r3, #0]
  uint32_t tickstart = HAL_GetTick();
 8000e6a:	f000 f95b 	bl	8001124 <HAL_GetTick>
  while(__HAL_RCC_GET_FLAG(RCC_FLAG_HSERDY) != RESET) {
 8000e6e:	4a1a      	ldr	r2, [pc, #104]	@ (8000ed8 <main+0x480>)
  uint32_t tickstart = HAL_GetTick();
 8000e70:	4683      	mov	fp, r0
  while(__HAL_RCC_GET_FLAG(RCC_FLAG_HSERDY) != RESET) {
 8000e72:	6811      	ldr	r1, [r2, #0]
 8000e74:	038b      	lsls	r3, r1, #14
 8000e76:	d507      	bpl.n	8000e88 <main+0x430>
    if ((HAL_GetTick() - tickstart) > 1000) {  /* 1 second timeout */
 8000e78:	f000 f954 	bl	8001124 <HAL_GetTick>
 8000e7c:	eba0 000b 	sub.w	r0, r0, fp
 8000e80:	f5b0 7f7a 	cmp.w	r0, #1000	@ 0x3e8
 8000e84:	4a14      	ldr	r2, [pc, #80]	@ (8000ed8 <main+0x480>)
 8000e86:	d9f4      	bls.n	8000e72 <main+0x41a>
  FLASH->ACR = (FLASH->ACR & ~FLASH_ACR_LATENCY) | FLASH_LATENCY_0;
 8000e88:	4a14      	ldr	r2, [pc, #80]	@ (8000edc <main+0x484>)
 8000e8a:	6813      	ldr	r3, [r2, #0]
 8000e8c:	f023 0307 	bic.w	r3, r3, #7
 8000e90:	6013      	str	r3, [r2, #0]
 8000e92:	b672      	cpsid	i
  __ASM volatile ("dsb 0xF":::"memory");
 8000e94:	f3bf 8f4f 	dsb	sy
  __ASM volatile ("isb 0xF":::"memory");
 8000e98:	f3bf 8f6f 	isb	sy
  SCB->VTOR = app_base;
 8000e9c:	4b10      	ldr	r3, [pc, #64]	@ (8000ee0 <main+0x488>)
 8000e9e:	609c      	str	r4, [r3, #8]
  \details Assigns the given value to the Main Stack Pointer (MSP).
  \param [in]    topOfMainStack  Main Stack Pointer value to set
 */
__STATIC_FORCEINLINE void __set_MSP(uint32_t topOfMainStack)
{
  __ASM volatile ("MSR msp, %0" : : "r" (topOfMainStack) : );
 8000ea0:	f389 8808 	msr	MSP, r9
  ((void (*)(void))reset_handler)();
 8000ea4:	47d0      	blx	sl
    for (uint32_t offset = 0; offset + sizeof(AppMetadata_t) <= sector_size; offset += 8) {
 8000ea6:	46c1      	mov	r9, r8
 8000ea8:	3508      	adds	r5, #8
 8000eaa:	e6b8      	b.n	8000c1e <main+0x1c6>
 8000eac:	08002496 	.word	0x08002496
 8000eb0:	0800249f 	.word	0x0800249f
 8000eb4:	08002484 	.word	0x08002484
 8000eb8:	0800248d 	.word	0x0800248d
 8000ebc:	20000090 	.word	0x20000090
 8000ec0:	20000048 	.word	0x20000048
 8000ec4:	40020800 	.word	0x40020800
 8000ec8:	40020000 	.word	0x40020000
 8000ecc:	40020400 	.word	0x40020400
 8000ed0:	40020c00 	.word	0x40020c00
 8000ed4:	42470000 	.word	0x42470000
 8000ed8:	40023800 	.word	0x40023800
 8000edc:	40023c00 	.word	0x40023c00
 8000ee0:	e000ed00 	.word	0xe000ed00

08000ee4 <assert_failed>:
{
  /* USER CODE BEGIN 6 */
  /* User can add his own implementation to report the file name and line number,
     ex: printf("Wrong parameters value: file %s on line %d\r\n", file, line) */
  /* USER CODE END 6 */
}
 8000ee4:	4770      	bx	lr
	...

08000ee8 <HAL_MspInit>:
/* USER CODE END 0 */
/**
  * Initializes the Global MSP.
  */
void HAL_MspInit(void)
{
 8000ee8:	b082      	sub	sp, #8

  /* USER CODE BEGIN MspInit 0 */

  /* USER CODE END MspInit 0 */

  __HAL_RCC_SYSCFG_CLK_ENABLE();
 8000eea:	4b0c      	ldr	r3, [pc, #48]	@ (8000f1c <HAL_MspInit+0x34>)
 8000eec:	2100      	movs	r1, #0
 8000eee:	9100      	str	r1, [sp, #0]
 8000ef0:	6c5a      	ldr	r2, [r3, #68]	@ 0x44
 8000ef2:	f442 4280 	orr.w	r2, r2, #16384	@ 0x4000
 8000ef6:	645a      	str	r2, [r3, #68]	@ 0x44
 8000ef8:	6c5a      	ldr	r2, [r3, #68]	@ 0x44
 8000efa:	f402 4280 	and.w	r2, r2, #16384	@ 0x4000
 8000efe:	9200      	str	r2, [sp, #0]
 8000f00:	9a00      	ldr	r2, [sp, #0]
  __HAL_RCC_PWR_CLK_ENABLE();
 8000f02:	9101      	str	r1, [sp, #4]
 8000f04:	6c1a      	ldr	r2, [r3, #64]	@ 0x40
 8000f06:	f042 5280 	orr.w	r2, r2, #268435456	@ 0x10000000
 8000f0a:	641a      	str	r2, [r3, #64]	@ 0x40
 8000f0c:	6c1b      	ldr	r3, [r3, #64]	@ 0x40
 8000f0e:	f003 5380 	and.w	r3, r3, #268435456	@ 0x10000000
 8000f12:	9301      	str	r3, [sp, #4]
 8000f14:	9b01      	ldr	r3, [sp, #4]
  /* System interrupt init*/

  /* USER CODE BEGIN MspInit 1 */

  /* USER CODE END MspInit 1 */
}
 8000f16:	b002      	add	sp, #8
 8000f18:	4770      	bx	lr
 8000f1a:	bf00      	nop
 8000f1c:	40023800 	.word	0x40023800

08000f20 <HAL_UART_MspInit>:
  * This function configures the hardware resources used in this example
  * @param huart: UART handle pointer
  * @retval None
  */
void HAL_UART_MspInit(UART_HandleTypeDef* huart)
{
 8000f20:	b510      	push	{r4, lr}
  GPIO_InitTypeDef GPIO_InitStruct = {0};
 8000f22:	2214      	movs	r2, #20
{
 8000f24:	b08a      	sub	sp, #40	@ 0x28
 8000f26:	4604      	mov	r4, r0
  GPIO_InitTypeDef GPIO_InitStruct = {0};
 8000f28:	2100      	movs	r1, #0
 8000f2a:	eb0d 0002 	add.w	r0, sp, r2
 8000f2e:	f001 fa57 	bl	80023e0 <memset>
  if(huart->Instance==USART1)
 8000f32:	6823      	ldr	r3, [r4, #0]
 8000f34:	4a22      	ldr	r2, [pc, #136]	@ (8000fc0 <HAL_UART_MspInit+0xa0>)
 8000f36:	4293      	cmp	r3, r2
 8000f38:	d124      	bne.n	8000f84 <HAL_UART_MspInit+0x64>
  {
    /* USER CODE BEGIN USART1_MspInit 0 */

    /* USER CODE END USART1_MspInit 0 */
    /* Peripheral clock enable */
    __HAL_RCC_USART1_CLK_ENABLE();
 8000f3a:	4b22      	ldr	r3, [pc, #136]	@ (8000fc4 <HAL_UART_MspInit+0xa4>)
 8000f3c:	2100      	movs	r1, #0
 8000f3e:	9101      	str	r1, [sp, #4]
 8000f40:	6c5a      	ldr	r2, [r3, #68]	@ 0x44
 8000f42:	f042 0210 	orr.w	r2, r2, #16
 8000f46:	645a      	str	r2, [r3, #68]	@ 0x44
 8000f48:	6c5a      	ldr	r2, [r3, #68]	@ 0x44
 8000f4a:	f002 0210 	and.w	r2, r2, #16
 8000f4e:	9201      	str	r2, [sp, #4]
 8000f50:	9a01      	ldr	r2, [sp, #4]

    __HAL_RCC_GPIOA_CLK_ENABLE();
 8000f52:	9102      	str	r1, [sp, #8]
 8000f54:	6b1a      	ldr	r2, [r3, #48]	@ 0x30
 8000f56:	f042 0201 	orr.w	r2, r2, #1
 8000f5a:	631a      	str	r2, [r3, #48]	@ 0x30
 8000f5c:	6b1b      	ldr	r3, [r3, #48]	@ 0x30
 8000f5e:	f003 0301 	and.w	r3, r3, #1
 8000f62:	9302      	str	r3, [sp, #8]
 8000f64:	9b02      	ldr	r3, [sp, #8]
    /**USART1 GPIO Configuration
    PA9     ------> USART1_TX
    PA10     ------> USART1_RX
    */
    GPIO_InitStruct.Pin = GPIO_PIN_9|GPIO_PIN_10;
    GPIO_InitStruct.Mode = GPIO_MODE_AF_PP;
 8000f66:	f44f 61c0 	mov.w	r1, #1536	@ 0x600
 8000f6a:	2302      	movs	r3, #2
 8000f6c:	e9cd 1305 	strd	r1, r3, [sp, #20]
    GPIO_InitStruct.Pull = GPIO_NOPULL;
    GPIO_InitStruct.Speed = GPIO_SPEED_FREQ_VERY_HIGH;
 8000f70:	2303      	movs	r3, #3
 8000f72:	9308      	str	r3, [sp, #32]
    */
    GPIO_InitStruct.Pin = USART_TX_Pin|USART_RX_Pin;
    GPIO_InitStruct.Mode = GPIO_MODE_AF_PP;
    GPIO_InitStruct.Pull = GPIO_NOPULL;
    GPIO_InitStruct.Speed = GPIO_SPEED_FREQ_LOW;
    GPIO_InitStruct.Alternate = GPIO_AF7_USART2;
 8000f74:	2307      	movs	r3, #7
    HAL_GPIO_Init(GPIOA, &GPIO_InitStruct);
 8000f76:	4814      	ldr	r0, [pc, #80]	@ (8000fc8 <HAL_UART_MspInit+0xa8>)
    GPIO_InitStruct.Alternate = GPIO_AF7_USART2;
 8000f78:	9309      	str	r3, [sp, #36]	@ 0x24
    HAL_GPIO_Init(GPIOA, &GPIO_InitStruct);
 8000f7a:	a905      	add	r1, sp, #20
 8000f7c:	f000 fbb8 	bl	80016f0 <HAL_GPIO_Init>
    /* USER CODE BEGIN USART2_MspInit 1 */

    /* USER CODE END USART2_MspInit 1 */
  }

}
 8000f80:	b00a      	add	sp, #40	@ 0x28
 8000f82:	bd10      	pop	{r4, pc}
  else if(huart->Instance==USART2)
 8000f84:	4a11      	ldr	r2, [pc, #68]	@ (8000fcc <HAL_UART_MspInit+0xac>)
 8000f86:	4293      	cmp	r3, r2
 8000f88:	d1fa      	bne.n	8000f80 <HAL_UART_MspInit+0x60>
    __HAL_RCC_USART2_CLK_ENABLE();
 8000f8a:	4b0e      	ldr	r3, [pc, #56]	@ (8000fc4 <HAL_UART_MspInit+0xa4>)
 8000f8c:	2100      	movs	r1, #0
 8000f8e:	9103      	str	r1, [sp, #12]
 8000f90:	6c1a      	ldr	r2, [r3, #64]	@ 0x40
 8000f92:	f442 3200 	orr.w	r2, r2, #131072	@ 0x20000
 8000f96:	641a      	str	r2, [r3, #64]	@ 0x40
 8000f98:	6c1a      	ldr	r2, [r3, #64]	@ 0x40
 8000f9a:	f402 3200 	and.w	r2, r2, #131072	@ 0x20000
 8000f9e:	9203      	str	r2, [sp, #12]
 8000fa0:	9a03      	ldr	r2, [sp, #12]
    __HAL_RCC_GPIOA_CLK_ENABLE();
 8000fa2:	9104      	str	r1, [sp, #16]
 8000fa4:	6b1a      	ldr	r2, [r3, #48]	@ 0x30
 8000fa6:	f042 0201 	orr.w	r2, r2, #1
 8000faa:	631a      	str	r2, [r3, #48]	@ 0x30
 8000fac:	6b1b      	ldr	r3, [r3, #48]	@ 0x30
 8000fae:	f003 0301 	and.w	r3, r3, #1
 8000fb2:	9304      	str	r3, [sp, #16]
 8000fb4:	9b04      	ldr	r3, [sp, #16]
    GPIO_InitStruct.Mode = GPIO_MODE_AF_PP;
 8000fb6:	220c      	movs	r2, #12
 8000fb8:	2302      	movs	r3, #2
 8000fba:	e9cd 2305 	strd	r2, r3, [sp, #20]
 8000fbe:	e7d9      	b.n	8000f74 <HAL_UART_MspInit+0x54>
 8000fc0:	40011000 	.word	0x40011000
 8000fc4:	40023800 	.word	0x40023800
 8000fc8:	40020000 	.word	0x40020000
 8000fcc:	40004400 	.word	0x40004400

08000fd0 <HAL_UART_MspDeInit>:
  * @param huart: UART handle pointer
  * @retval None
  */
void HAL_UART_MspDeInit(UART_HandleTypeDef* huart)
{
  if(huart->Instance==USART1)
 8000fd0:	6803      	ldr	r3, [r0, #0]
 8000fd2:	4a0d      	ldr	r2, [pc, #52]	@ (8001008 <HAL_UART_MspDeInit+0x38>)
 8000fd4:	4293      	cmp	r3, r2
 8000fd6:	d10a      	bne.n	8000fee <HAL_UART_MspDeInit+0x1e>
  {
    /* USER CODE BEGIN USART1_MspDeInit 0 */

    /* USER CODE END USART1_MspDeInit 0 */
    /* Peripheral clock disable */
    __HAL_RCC_USART1_CLK_DISABLE();
 8000fd8:	f502 3294 	add.w	r2, r2, #75776	@ 0x12800

    /**USART1 GPIO Configuration
    PA9     ------> USART1_TX
    PA10     ------> USART1_RX
    */
    HAL_GPIO_DeInit(GPIOA, GPIO_PIN_9|GPIO_PIN_10);
 8000fdc:	f44f 61c0 	mov.w	r1, #1536	@ 0x600
    __HAL_RCC_USART1_CLK_DISABLE();
 8000fe0:	6c53      	ldr	r3, [r2, #68]	@ 0x44
 8000fe2:	f023 0310 	bic.w	r3, r3, #16
 8000fe6:	6453      	str	r3, [r2, #68]	@ 0x44

    /**USART2 GPIO Configuration
    PA2     ------> USART2_TX
    PA3     ------> USART2_RX
    */
    HAL_GPIO_DeInit(GPIOA, USART_TX_Pin|USART_RX_Pin);
 8000fe8:	4808      	ldr	r0, [pc, #32]	@ (800100c <HAL_UART_MspDeInit+0x3c>)
 8000fea:	f000 bcb9 	b.w	8001960 <HAL_GPIO_DeInit>
  else if(huart->Instance==USART2)
 8000fee:	4a08      	ldr	r2, [pc, #32]	@ (8001010 <HAL_UART_MspDeInit+0x40>)
 8000ff0:	4293      	cmp	r3, r2
 8000ff2:	d107      	bne.n	8001004 <HAL_UART_MspDeInit+0x34>
    __HAL_RCC_USART2_CLK_DISABLE();
 8000ff4:	f502 32fa 	add.w	r2, r2, #128000	@ 0x1f400
    HAL_GPIO_DeInit(GPIOA, USART_TX_Pin|USART_RX_Pin);
 8000ff8:	210c      	movs	r1, #12
    __HAL_RCC_USART2_CLK_DISABLE();
 8000ffa:	6c13      	ldr	r3, [r2, #64]	@ 0x40
 8000ffc:	f423 3300 	bic.w	r3, r3, #131072	@ 0x20000
 8001000:	6413      	str	r3, [r2, #64]	@ 0x40
    HAL_GPIO_DeInit(GPIOA, USART_TX_Pin|USART_RX_Pin);
 8001002:	e7f1      	b.n	8000fe8 <HAL_UART_MspDeInit+0x18>
    /* USER CODE BEGIN USART2_MspDeInit 1 */

    /* USER CODE END USART2_MspDeInit 1 */
  }

}
 8001004:	4770      	bx	lr
 8001006:	bf00      	nop
 8001008:	40011000 	.word	0x40011000
 800100c:	40020000 	.word	0x40020000
 8001010:	40004400 	.word	0x40004400

08001014 <NMI_Handler>:
{
  /* USER CODE BEGIN NonMaskableInt_IRQn 0 */

  /* USER CODE END NonMaskableInt_IRQn 0 */
  /* USER CODE BEGIN NonMaskableInt_IRQn 1 */
   while (1)
 8001014:	e7fe      	b.n	8001014 <NMI_Handler>

08001016 <HardFault_Handler>:
void HardFault_Handler(void)
{
  /* USER CODE BEGIN HardFault_IRQn 0 */

  /* USER CODE END HardFault_IRQn 0 */
  while (1)
 8001016:	e7fe      	b.n	8001016 <HardFault_Handler>

08001018 <MemManage_Handler>:
void MemManage_Handler(void)
{
  /* USER CODE BEGIN MemoryManagement_IRQn 0 */

  /* USER CODE END MemoryManagement_IRQn 0 */
  while (1)
 8001018:	e7fe      	b.n	8001018 <MemManage_Handler>

0800101a <BusFault_Handler>:
void BusFault_Handler(void)
{
  /* USER CODE BEGIN BusFault_IRQn 0 */

  /* USER CODE END BusFault_IRQn 0 */
  while (1)
 800101a:	e7fe      	b.n	800101a <BusFault_Handler>

0800101c <UsageFault_Handler>:
void UsageFault_Handler(void)
{
  /* USER CODE BEGIN UsageFault_IRQn 0 */

  /* USER CODE END UsageFault_IRQn 0 */
  while (1)
 800101c:	e7fe      	b.n	800101c <UsageFault_Handler>

0800101e <SVC_Handler>:

  /* USER CODE END SVCall_IRQn 0 */
  /* USER CODE BEGIN SVCall_IRQn 1 */

  /* USER CODE END SVCall_IRQn 1 */
}
 800101e:	4770      	bx	lr

08001020 <DebugMon_Handler>:

/**
  * @brief This function handles Debug monitor.
  */
void DebugMon_Handler(void)
 8001020:	4770      	bx	lr

08001022 <PendSV_Handler>:
}

/**
  * @brief This function handles Pendable request for system service.
  */
void PendSV_Handler(void)
 8001022:	4770      	bx	lr

08001024 <SysTick_Handler>:
void SysTick_Handler(void)
{
  /* USER CODE BEGIN SysTick_IRQn 0 */

  /* USER CODE END SysTick_IRQn 0 */
  HAL_IncTick();
 8001024:	f000 b872 	b.w	800110c <HAL_IncTick>

08001028 <SystemInit>:
  */
void SystemInit(void)
{
  /* FPU settings ------------------------------------------------------------*/
  #if (__FPU_PRESENT == 1) && (__FPU_USED == 1)
    SCB->CPACR |= ((3UL << 10*2)|(3UL << 11*2));  /* set CP10 and CP11 Full Access */
 8001028:	4a03      	ldr	r2, [pc, #12]	@ (8001038 <SystemInit+0x10>)
 800102a:	f8d2 3088 	ldr.w	r3, [r2, #136]	@ 0x88
 800102e:	f443 0370 	orr.w	r3, r3, #15728640	@ 0xf00000
 8001032:	f8c2 3088 	str.w	r3, [r2, #136]	@ 0x88

  /* Configure the Vector Table location -------------------------------------*/
#if defined(USER_VECT_TAB_ADDRESS)
  SCB->VTOR = VECT_TAB_BASE_ADDRESS | VECT_TAB_OFFSET; /* Vector Table Relocation in Internal SRAM */
#endif /* USER_VECT_TAB_ADDRESS */
}
 8001036:	4770      	bx	lr
 8001038:	e000ed00 	.word	0xe000ed00

0800103c <Reset_Handler>:

    .section  .text.Reset_Handler
  .weak  Reset_Handler
  .type  Reset_Handler, %function
Reset_Handler:  
  ldr   sp, =_estack    		 /* set stack pointer */
 800103c:	f8df d034 	ldr.w	sp, [pc, #52]	@ 8001074 <LoopFillZerobss+0xe>

/* Call the clock system initialization function.*/
  bl  SystemInit  
 8001040:	f7ff fff2 	bl	8001028 <SystemInit>

/* Copy the data segment initializers from flash to SRAM */  
  ldr r0, =_sdata
 8001044:	480c      	ldr	r0, [pc, #48]	@ (8001078 <LoopFillZerobss+0x12>)
  ldr r1, =_edata
 8001046:	490d      	ldr	r1, [pc, #52]	@ (800107c <LoopFillZerobss+0x16>)
  ldr r2, =_sidata
 8001048:	4a0d      	ldr	r2, [pc, #52]	@ (8001080 <LoopFillZerobss+0x1a>)
  movs r3, #0
 800104a:	2300      	movs	r3, #0
  b LoopCopyDataInit
 800104c:	e002      	b.n	8001054 <LoopCopyDataInit>

0800104e <CopyDataInit>:

CopyDataInit:
  ldr r4, [r2, r3]
 800104e:	58d4      	ldr	r4, [r2, r3]
  str r4, [r0, r3]
 8001050:	50c4      	str	r4, [r0, r3]
  adds r3, r3, #4
 8001052:	3304      	adds	r3, #4

08001054 <LoopCopyDataInit>:

LoopCopyDataInit:
  adds r4, r0, r3
 8001054:	18c4      	adds	r4, r0, r3
  cmp r4, r1
 8001056:	428c      	cmp	r4, r1
  bcc CopyDataInit
 8001058:	d3f9      	bcc.n	800104e <CopyDataInit>
  
/* Zero fill the bss segment. */
  ldr r2, =_sbss
 800105a:	4a0a      	ldr	r2, [pc, #40]	@ (8001084 <LoopFillZerobss+0x1e>)
  ldr r4, =_ebss
 800105c:	4c0a      	ldr	r4, [pc, #40]	@ (8001088 <LoopFillZerobss+0x22>)
  movs r3, #0
 800105e:	2300      	movs	r3, #0
  b LoopFillZerobss
 8001060:	e001      	b.n	8001066 <LoopFillZerobss>

08001062 <FillZerobss>:

FillZerobss:
  str  r3, [r2]
 8001062:	6013      	str	r3, [r2, #0]
  adds r2, r2, #4
 8001064:	3204      	adds	r2, #4

08001066 <LoopFillZerobss>:

LoopFillZerobss:
  cmp r2, r4
 8001066:	42a2      	cmp	r2, r4
  bcc FillZerobss
 8001068:	d3fb      	bcc.n	8001062 <FillZerobss>
 
/* Call static constructors */
    bl __libc_init_array
 800106a:	f001 f9c1 	bl	80023f0 <__libc_init_array>
/* Call the application's entry point.*/
  bl  main
 800106e:	f7ff fcf3 	bl	8000a58 <main>
  bx  lr    
 8001072:	4770      	bx	lr
  ldr   sp, =_estack    		 /* set stack pointer */
 8001074:	20018000 	.word	0x20018000
  ldr r0, =_sdata
 8001078:	20000000 	.word	0x20000000
  ldr r1, =_edata
 800107c:	2000002c 	.word	0x2000002c
  ldr r2, =_sidata
 8001080:	08002764 	.word	0x08002764
  ldr r2, =_sbss
 8001084:	2000002c 	.word	0x2000002c
  ldr r4, =_ebss
 8001088:	200000dc 	.word	0x200000dc

0800108c <ADC_IRQHandler>:
 * @retval None       
*/
    .section  .text.Default_Handler,"ax",%progbits
Default_Handler:
Infinite_Loop:
  b  Infinite_Loop
 800108c:	e7fe      	b.n	800108c <ADC_IRQHandler>
	...

08001090 <HAL_InitTick>:
  *       implementation  in user file.
  * @param TickPriority Tick interrupt priority.
  * @retval HAL status
  */
__weak HAL_StatusTypeDef HAL_InitTick(uint32_t TickPriority)
{
 8001090:	b538      	push	{r3, r4, r5, lr}
  /* Configure the SysTick to have interrupt in 1ms time basis*/
  if (HAL_SYSTICK_Config(SystemCoreClock / (1000U / uwTickFreq)) > 0U)
 8001092:	4b0e      	ldr	r3, [pc, #56]	@ (80010cc <HAL_InitTick+0x3c>)
 8001094:	781a      	ldrb	r2, [r3, #0]
 8001096:	f44f 737a 	mov.w	r3, #1000	@ 0x3e8
 800109a:	fbb3 f3f2 	udiv	r3, r3, r2
 800109e:	4a0c      	ldr	r2, [pc, #48]	@ (80010d0 <HAL_InitTick+0x40>)
{
 80010a0:	4605      	mov	r5, r0
  if (HAL_SYSTICK_Config(SystemCoreClock / (1000U / uwTickFreq)) > 0U)
 80010a2:	6810      	ldr	r0, [r2, #0]
 80010a4:	fbb0 f0f3 	udiv	r0, r0, r3
 80010a8:	f000 f8b4 	bl	8001214 <HAL_SYSTICK_Config>
 80010ac:	4604      	mov	r4, r0
 80010ae:	b958      	cbnz	r0, 80010c8 <HAL_InitTick+0x38>
  {
    return HAL_ERROR;
  }

  /* Configure the SysTick IRQ priority */
  if (TickPriority < (1UL << __NVIC_PRIO_BITS))
 80010b0:	2d0f      	cmp	r5, #15
 80010b2:	d809      	bhi.n	80010c8 <HAL_InitTick+0x38>
  {
    HAL_NVIC_SetPriority(SysTick_IRQn, TickPriority, 0U);
 80010b4:	4602      	mov	r2, r0
 80010b6:	4629      	mov	r1, r5
 80010b8:	f04f 30ff 	mov.w	r0, #4294967295
 80010bc:	f000 f856 	bl	800116c <HAL_NVIC_SetPriority>
    uwTickPrio = TickPriority;
 80010c0:	4b04      	ldr	r3, [pc, #16]	@ (80010d4 <HAL_InitTick+0x44>)
 80010c2:	4620      	mov	r0, r4
 80010c4:	601d      	str	r5, [r3, #0]
    return HAL_ERROR;
  }

  /* Return function status */
  return HAL_OK;
}
 80010c6:	bd38      	pop	{r3, r4, r5, pc}
    return HAL_ERROR;
 80010c8:	2001      	movs	r0, #1
 80010ca:	e7fc      	b.n	80010c6 <HAL_InitTick+0x36>
 80010cc:	20000004 	.word	0x20000004
 80010d0:	20000000 	.word	0x20000000
 80010d4:	20000008 	.word	0x20000008

080010d8 <HAL_Init>:
{
 80010d8:	b508      	push	{r3, lr}
  __HAL_FLASH_INSTRUCTION_CACHE_ENABLE();
 80010da:	4b0b      	ldr	r3, [pc, #44]	@ (8001108 <HAL_Init+0x30>)
 80010dc:	681a      	ldr	r2, [r3, #0]
 80010de:	f442 7200 	orr.w	r2, r2, #512	@ 0x200
 80010e2:	601a      	str	r2, [r3, #0]
  __HAL_FLASH_DATA_CACHE_ENABLE();
 80010e4:	681a      	ldr	r2, [r3, #0]
 80010e6:	f442 6280 	orr.w	r2, r2, #1024	@ 0x400
 80010ea:	601a      	str	r2, [r3, #0]
  __HAL_FLASH_PREFETCH_BUFFER_ENABLE();
 80010ec:	681a      	ldr	r2, [r3, #0]
 80010ee:	f442 7280 	orr.w	r2, r2, #256	@ 0x100
 80010f2:	601a      	str	r2, [r3, #0]
  HAL_NVIC_SetPriorityGrouping(NVIC_PRIORITYGROUP_4);
 80010f4:	2003      	movs	r0, #3
 80010f6:	f000 f81b 	bl	8001130 <HAL_NVIC_SetPriorityGrouping>
  HAL_InitTick(TICK_INT_PRIORITY);
 80010fa:	2000      	movs	r0, #0
 80010fc:	f7ff ffc8 	bl	8001090 <HAL_InitTick>
  HAL_MspInit();
 8001100:	f7ff fef2 	bl	8000ee8 <HAL_MspInit>
}
 8001104:	2000      	movs	r0, #0
 8001106:	bd08      	pop	{r3, pc}
 8001108:	40023c00 	.word	0x40023c00

0800110c <HAL_IncTick>:
  *      implementations in user file.
  * @retval None
  */
__weak void HAL_IncTick(void)
{
  uwTick += uwTickFreq;
 800110c:	4a03      	ldr	r2, [pc, #12]	@ (800111c <HAL_IncTick+0x10>)
 800110e:	4b04      	ldr	r3, [pc, #16]	@ (8001120 <HAL_IncTick+0x14>)
 8001110:	6811      	ldr	r1, [r2, #0]
 8001112:	781b      	ldrb	r3, [r3, #0]
 8001114:	440b      	add	r3, r1
 8001116:	6013      	str	r3, [r2, #0]
}
 8001118:	4770      	bx	lr
 800111a:	bf00      	nop
 800111c:	200000d8 	.word	0x200000d8
 8001120:	20000004 	.word	0x20000004

08001124 <HAL_GetTick>:
  *       implementations in user file.
  * @retval tick value
  */
__weak uint32_t HAL_GetTick(void)
{
  return uwTick;
 8001124:	4b01      	ldr	r3, [pc, #4]	@ (800112c <HAL_GetTick+0x8>)
 8001126:	6818      	ldr	r0, [r3, #0]
}
 8001128:	4770      	bx	lr
 800112a:	bf00      	nop
 800112c:	200000d8 	.word	0x200000d8

08001130 <HAL_NVIC_SetPriorityGrouping>:
  * @retval None
  */
void HAL_NVIC_SetPriorityGrouping(uint32_t PriorityGroup)
{
  /* Check the parameters */
  assert_param(IS_NVIC_PRIORITY_GROUP(PriorityGroup));
 8001130:	1ec3      	subs	r3, r0, #3
 8001132:	2b04      	cmp	r3, #4
{
 8001134:	b510      	push	{r4, lr}
 8001136:	4604      	mov	r4, r0
  assert_param(IS_NVIC_PRIORITY_GROUP(PriorityGroup));
 8001138:	d903      	bls.n	8001142 <HAL_NVIC_SetPriorityGrouping+0x12>
 800113a:	480a      	ldr	r0, [pc, #40]	@ (8001164 <HAL_NVIC_SetPriorityGrouping+0x34>)
 800113c:	2190      	movs	r1, #144	@ 0x90
 800113e:	f7ff fed1 	bl	8000ee4 <assert_failed>
__STATIC_INLINE void __NVIC_SetPriorityGrouping(uint32_t PriorityGroup)
{
  uint32_t reg_value;
  uint32_t PriorityGroupTmp = (PriorityGroup & (uint32_t)0x07UL);             /* only values 0..7 are used          */

  reg_value  =  SCB->AIRCR;                                                   /* read old register configuration    */
 8001142:	4909      	ldr	r1, [pc, #36]	@ (8001168 <HAL_NVIC_SetPriorityGrouping+0x38>)
 8001144:	68ca      	ldr	r2, [r1, #12]
  reg_value &= ~((uint32_t)(SCB_AIRCR_VECTKEY_Msk | SCB_AIRCR_PRIGROUP_Msk)); /* clear bits to change               */
 8001146:	f422 62e0 	bic.w	r2, r2, #1792	@ 0x700
  reg_value  =  (reg_value                                   |
                ((uint32_t)0x5FAUL << SCB_AIRCR_VECTKEY_Pos) |
                (PriorityGroupTmp << SCB_AIRCR_PRIGROUP_Pos)  );              /* Insert write key and priority group */
 800114a:	0223      	lsls	r3, r4, #8
  reg_value &= ~((uint32_t)(SCB_AIRCR_VECTKEY_Msk | SCB_AIRCR_PRIGROUP_Msk)); /* clear bits to change               */
 800114c:	0412      	lsls	r2, r2, #16
                (PriorityGroupTmp << SCB_AIRCR_PRIGROUP_Pos)  );              /* Insert write key and priority group */
 800114e:	f403 63e0 	and.w	r3, r3, #1792	@ 0x700
  reg_value &= ~((uint32_t)(SCB_AIRCR_VECTKEY_Msk | SCB_AIRCR_PRIGROUP_Msk)); /* clear bits to change               */
 8001152:	0c12      	lsrs	r2, r2, #16
                ((uint32_t)0x5FAUL << SCB_AIRCR_VECTKEY_Pos) |
 8001154:	4313      	orrs	r3, r2
  reg_value  =  (reg_value                                   |
 8001156:	f043 63bf 	orr.w	r3, r3, #100139008	@ 0x5f80000
 800115a:	f443 3300 	orr.w	r3, r3, #131072	@ 0x20000
  SCB->AIRCR =  reg_value;
 800115e:	60cb      	str	r3, [r1, #12]
  
  /* Set the PRIGROUP[10:8] bits according to the PriorityGroup parameter value */
  NVIC_SetPriorityGrouping(PriorityGroup);
}
 8001160:	bd10      	pop	{r4, pc}
 8001162:	bf00      	nop
 8001164:	080024a8 	.word	0x080024a8
 8001168:	e000ed00 	.word	0xe000ed00

0800116c <HAL_NVIC_SetPriority>:
void HAL_NVIC_SetPriority(IRQn_Type IRQn, uint32_t PreemptPriority, uint32_t SubPriority)
{ 
  uint32_t prioritygroup = 0x00U;
  
  /* Check the parameters */
  assert_param(IS_NVIC_SUB_PRIORITY(SubPriority));
 800116c:	2a0f      	cmp	r2, #15
{ 
 800116e:	b570      	push	{r4, r5, r6, lr}
 8001170:	4605      	mov	r5, r0
 8001172:	460c      	mov	r4, r1
 8001174:	4616      	mov	r6, r2
  assert_param(IS_NVIC_SUB_PRIORITY(SubPriority));
 8001176:	d903      	bls.n	8001180 <HAL_NVIC_SetPriority+0x14>
 8001178:	481a      	ldr	r0, [pc, #104]	@ (80011e4 <HAL_NVIC_SetPriority+0x78>)
 800117a:	21a8      	movs	r1, #168	@ 0xa8
 800117c:	f7ff feb2 	bl	8000ee4 <assert_failed>
  assert_param(IS_NVIC_PREEMPTION_PRIORITY(PreemptPriority));
 8001180:	2c0f      	cmp	r4, #15
 8001182:	d903      	bls.n	800118c <HAL_NVIC_SetPriority+0x20>
 8001184:	4817      	ldr	r0, [pc, #92]	@ (80011e4 <HAL_NVIC_SetPriority+0x78>)
 8001186:	21a9      	movs	r1, #169	@ 0xa9
 8001188:	f7ff feac 	bl	8000ee4 <assert_failed>
  \details Reads the priority grouping field from the NVIC Interrupt Controller.
  \return                Priority grouping field (SCB->AIRCR [10:8] PRIGROUP field).
 */
__STATIC_INLINE uint32_t __NVIC_GetPriorityGrouping(void)
{
  return ((uint32_t)((SCB->AIRCR & SCB_AIRCR_PRIGROUP_Msk) >> SCB_AIRCR_PRIGROUP_Pos));
 800118c:	4b16      	ldr	r3, [pc, #88]	@ (80011e8 <HAL_NVIC_SetPriority+0x7c>)
 800118e:	68d9      	ldr	r1, [r3, #12]
 8001190:	f3c1 2102 	ubfx	r1, r1, #8, #3
{
  uint32_t PriorityGroupTmp = (PriorityGroup & (uint32_t)0x07UL);   /* only values 0..7 are used          */
  uint32_t PreemptPriorityBits;
  uint32_t SubPriorityBits;

  PreemptPriorityBits = ((7UL - PriorityGroupTmp) > (uint32_t)(__NVIC_PRIO_BITS)) ? (uint32_t)(__NVIC_PRIO_BITS) : (uint32_t)(7UL - PriorityGroupTmp);
 8001194:	f1c1 0307 	rsb	r3, r1, #7
  SubPriorityBits     = ((PriorityGroupTmp + (uint32_t)(__NVIC_PRIO_BITS)) < (uint32_t)7UL) ? (uint32_t)0UL : (uint32_t)((PriorityGroupTmp - 7UL) + (uint32_t)(__NVIC_PRIO_BITS));
 8001198:	1d0a      	adds	r2, r1, #4
  PreemptPriorityBits = ((7UL - PriorityGroupTmp) > (uint32_t)(__NVIC_PRIO_BITS)) ? (uint32_t)(__NVIC_PRIO_BITS) : (uint32_t)(7UL - PriorityGroupTmp);
 800119a:	2b04      	cmp	r3, #4
 800119c:	bf28      	it	cs
 800119e:	2304      	movcs	r3, #4
  SubPriorityBits     = ((PriorityGroupTmp + (uint32_t)(__NVIC_PRIO_BITS)) < (uint32_t)7UL) ? (uint32_t)0UL : (uint32_t)((PriorityGroupTmp - 7UL) + (uint32_t)(__NVIC_PRIO_BITS));
 80011a0:	2a06      	cmp	r2, #6

  return (
           ((PreemptPriority & (uint32_t)((1UL << (PreemptPriorityBits)) - 1UL)) << SubPriorityBits) |
 80011a2:	f04f 32ff 	mov.w	r2, #4294967295
  SubPriorityBits     = ((PriorityGroupTmp + (uint32_t)(__NVIC_PRIO_BITS)) < (uint32_t)7UL) ? (uint32_t)0UL : (uint32_t)((PriorityGroupTmp - 7UL) + (uint32_t)(__NVIC_PRIO_BITS));
 80011a6:	bf8c      	ite	hi
 80011a8:	3903      	subhi	r1, #3
 80011aa:	2100      	movls	r1, #0
           ((PreemptPriority & (uint32_t)((1UL << (PreemptPriorityBits)) - 1UL)) << SubPriorityBits) |
 80011ac:	fa02 f303 	lsl.w	r3, r2, r3
 80011b0:	ea24 0303 	bic.w	r3, r4, r3
           ((SubPriority     & (uint32_t)((1UL << (SubPriorityBits    )) - 1UL)))
 80011b4:	408a      	lsls	r2, r1
 80011b6:	ea26 0602 	bic.w	r6, r6, r2
           ((PreemptPriority & (uint32_t)((1UL << (PreemptPriorityBits)) - 1UL)) << SubPriorityBits) |
 80011ba:	408b      	lsls	r3, r1
  if ((int32_t)(IRQn) >= 0)
 80011bc:	2d00      	cmp	r5, #0
           ((PreemptPriority & (uint32_t)((1UL << (PreemptPriorityBits)) - 1UL)) << SubPriorityBits) |
 80011be:	ea43 0306 	orr.w	r3, r3, r6
    NVIC->IP[((uint32_t)IRQn)]               = (uint8_t)((priority << (8U - __NVIC_PRIO_BITS)) & (uint32_t)0xFFUL);
 80011c2:	bfac      	ite	ge
 80011c4:	f105 4560 	addge.w	r5, r5, #3758096384	@ 0xe0000000
    SCB->SHP[(((uint32_t)IRQn) & 0xFUL)-4UL] = (uint8_t)((priority << (8U - __NVIC_PRIO_BITS)) & (uint32_t)0xFFUL);
 80011c8:	4a08      	ldrlt	r2, [pc, #32]	@ (80011ec <HAL_NVIC_SetPriority+0x80>)
    NVIC->IP[((uint32_t)IRQn)]               = (uint8_t)((priority << (8U - __NVIC_PRIO_BITS)) & (uint32_t)0xFFUL);
 80011ca:	ea4f 1303 	mov.w	r3, r3, lsl #4
    SCB->SHP[(((uint32_t)IRQn) & 0xFUL)-4UL] = (uint8_t)((priority << (8U - __NVIC_PRIO_BITS)) & (uint32_t)0xFFUL);
 80011ce:	bfb8      	it	lt
 80011d0:	f005 050f 	andlt.w	r5, r5, #15
    NVIC->IP[((uint32_t)IRQn)]               = (uint8_t)((priority << (8U - __NVIC_PRIO_BITS)) & (uint32_t)0xFFUL);
 80011d4:	b2db      	uxtb	r3, r3
 80011d6:	bfaa      	itet	ge
 80011d8:	f505 4561 	addge.w	r5, r5, #57600	@ 0xe100
    SCB->SHP[(((uint32_t)IRQn) & 0xFUL)-4UL] = (uint8_t)((priority << (8U - __NVIC_PRIO_BITS)) & (uint32_t)0xFFUL);
 80011dc:	5553      	strblt	r3, [r2, r5]
    NVIC->IP[((uint32_t)IRQn)]               = (uint8_t)((priority << (8U - __NVIC_PRIO_BITS)) & (uint32_t)0xFFUL);
 80011de:	f885 3300 	strbge.w	r3, [r5, #768]	@ 0x300
  
  prioritygroup = NVIC_GetPriorityGrouping();
  
  NVIC_SetPriority(IRQn, NVIC_EncodePriority(prioritygroup, PreemptPriority, SubPriority));
}
 80011e2:	bd70      	pop	{r4, r5, r6, pc}
 80011e4:	080024a8 	.word	0x080024a8
 80011e8:	e000ed00 	.word	0xe000ed00
 80011ec:	e000ed14 	.word	0xe000ed14

080011f0 <HAL_NVIC_SystemReset>:
  __ASM volatile ("dsb 0xF":::"memory");
 80011f0:	f3bf 8f4f 	dsb	sy
__NO_RETURN __STATIC_INLINE void __NVIC_SystemReset(void)
{
  __DSB();                                                          /* Ensure all outstanding memory accesses included
                                                                       buffered write are completed before reset */
  SCB->AIRCR  = (uint32_t)((0x5FAUL << SCB_AIRCR_VECTKEY_Pos)    |
                           (SCB->AIRCR & SCB_AIRCR_PRIGROUP_Msk) |
 80011f4:	4905      	ldr	r1, [pc, #20]	@ (800120c <HAL_NVIC_SystemReset+0x1c>)
  SCB->AIRCR  = (uint32_t)((0x5FAUL << SCB_AIRCR_VECTKEY_Pos)    |
 80011f6:	4b06      	ldr	r3, [pc, #24]	@ (8001210 <HAL_NVIC_SystemReset+0x20>)
                           (SCB->AIRCR & SCB_AIRCR_PRIGROUP_Msk) |
 80011f8:	68ca      	ldr	r2, [r1, #12]
 80011fa:	f402 62e0 	and.w	r2, r2, #1792	@ 0x700
  SCB->AIRCR  = (uint32_t)((0x5FAUL << SCB_AIRCR_VECTKEY_Pos)    |
 80011fe:	4313      	orrs	r3, r2
 8001200:	60cb      	str	r3, [r1, #12]
 8001202:	f3bf 8f4f 	dsb	sy
                            SCB_AIRCR_SYSRESETREQ_Msk    );         /* Keep priority group unchanged */
  __DSB();                                                          /* Ensure completion of memory access */

  for(;;)                                                           /* wait until reset */
  {
    __NOP();
 8001206:	bf00      	nop
  for(;;)                                                           /* wait until reset */
 8001208:	e7fd      	b.n	8001206 <HAL_NVIC_SystemReset+0x16>
 800120a:	bf00      	nop
 800120c:	e000ed00 	.word	0xe000ed00
 8001210:	05fa0004 	.word	0x05fa0004

08001214 <HAL_SYSTICK_Config>:
           function <b>SysTick_Config</b> is not included. In this case, the file <b><i>device</i>.h</b>
           must contain a vendor-specific implementation of this function.
 */
__STATIC_INLINE uint32_t SysTick_Config(uint32_t ticks)
{
  if ((ticks - 1UL) > SysTick_LOAD_RELOAD_Msk)
 8001214:	3801      	subs	r0, #1
 8001216:	f1b0 7f80 	cmp.w	r0, #16777216	@ 0x1000000
 800121a:	d20b      	bcs.n	8001234 <HAL_SYSTICK_Config+0x20>
  {
    return (1UL);                                                   /* Reload value impossible */
  }

  SysTick->LOAD  = (uint32_t)(ticks - 1UL);                         /* set reload register */
 800121c:	f04f 23e0 	mov.w	r3, #3758153728	@ 0xe000e000
    SCB->SHP[(((uint32_t)IRQn) & 0xFUL)-4UL] = (uint8_t)((priority << (8U - __NVIC_PRIO_BITS)) & (uint32_t)0xFFUL);
 8001220:	4a05      	ldr	r2, [pc, #20]	@ (8001238 <HAL_SYSTICK_Config+0x24>)
  SysTick->LOAD  = (uint32_t)(ticks - 1UL);                         /* set reload register */
 8001222:	6158      	str	r0, [r3, #20]
    SCB->SHP[(((uint32_t)IRQn) & 0xFUL)-4UL] = (uint8_t)((priority << (8U - __NVIC_PRIO_BITS)) & (uint32_t)0xFFUL);
 8001224:	21f0      	movs	r1, #240	@ 0xf0
 8001226:	f882 1023 	strb.w	r1, [r2, #35]	@ 0x23
  NVIC_SetPriority (SysTick_IRQn, (1UL << __NVIC_PRIO_BITS) - 1UL); /* set Priority for Systick Interrupt */
  SysTick->VAL   = 0UL;                                             /* Load the SysTick Counter Value */
 800122a:	2000      	movs	r0, #0
  SysTick->CTRL  = SysTick_CTRL_CLKSOURCE_Msk |
 800122c:	2207      	movs	r2, #7
  SysTick->VAL   = 0UL;                                             /* Load the SysTick Counter Value */
 800122e:	6198      	str	r0, [r3, #24]
  SysTick->CTRL  = SysTick_CTRL_CLKSOURCE_Msk |
 8001230:	611a      	str	r2, [r3, #16]
                   SysTick_CTRL_TICKINT_Msk   |
                   SysTick_CTRL_ENABLE_Msk;                         /* Enable SysTick IRQ and SysTick Timer */
  return (0UL);                                                     /* Function successful */
 8001232:	4770      	bx	lr
    return (1UL);                                                   /* Reload value impossible */
 8001234:	2001      	movs	r0, #1
  *                  - 1  Function failed.
  */
uint32_t HAL_SYSTICK_Config(uint32_t TicksNumb)
{
   return SysTick_Config(TicksNumb);
}
 8001236:	4770      	bx	lr
 8001238:	e000ed00 	.word	0xe000ed00

0800123c <FLASH_SetErrorCode>:
  * @brief  Set the specific FLASH error flag.
  * @retval None
  */
static void FLASH_SetErrorCode(void)
{
  if (__HAL_FLASH_GET_FLAG(FLASH_FLAG_WRPERR) != RESET)
 800123c:	4b20      	ldr	r3, [pc, #128]	@ (80012c0 <FLASH_SetErrorCode+0x84>)
 800123e:	68da      	ldr	r2, [r3, #12]
 8001240:	06d0      	lsls	r0, r2, #27
 8001242:	d506      	bpl.n	8001252 <FLASH_SetErrorCode+0x16>
  {
    pFlash.ErrorCode |= HAL_FLASH_ERROR_WRP;
 8001244:	491f      	ldr	r1, [pc, #124]	@ (80012c4 <FLASH_SetErrorCode+0x88>)
 8001246:	69ca      	ldr	r2, [r1, #28]
 8001248:	f042 0210 	orr.w	r2, r2, #16
 800124c:	61ca      	str	r2, [r1, #28]

    /* Clear FLASH write protection error pending bit */
    __HAL_FLASH_CLEAR_FLAG(FLASH_FLAG_WRPERR);
 800124e:	2210      	movs	r2, #16
 8001250:	60da      	str	r2, [r3, #12]
  }

  if (__HAL_FLASH_GET_FLAG(FLASH_FLAG_PGAERR) != RESET)
 8001252:	68da      	ldr	r2, [r3, #12]
 8001254:	0691      	lsls	r1, r2, #26
 8001256:	d506      	bpl.n	8001266 <FLASH_SetErrorCode+0x2a>
  {
    pFlash.ErrorCode |= HAL_FLASH_ERROR_PGA;
 8001258:	491a      	ldr	r1, [pc, #104]	@ (80012c4 <FLASH_SetErrorCode+0x88>)
 800125a:	69ca      	ldr	r2, [r1, #28]
 800125c:	f042 0208 	orr.w	r2, r2, #8
 8001260:	61ca      	str	r2, [r1, #28]

    /* Clear FLASH Programming alignment error pending bit */
    __HAL_FLASH_CLEAR_FLAG(FLASH_FLAG_PGAERR);
 8001262:	2220      	movs	r2, #32
 8001264:	60da      	str	r2, [r3, #12]
  }

  if (__HAL_FLASH_GET_FLAG(FLASH_FLAG_PGPERR) != RESET)
 8001266:	4b16      	ldr	r3, [pc, #88]	@ (80012c0 <FLASH_SetErrorCode+0x84>)
 8001268:	68da      	ldr	r2, [r3, #12]
 800126a:	0652      	lsls	r2, r2, #25
 800126c:	d506      	bpl.n	800127c <FLASH_SetErrorCode+0x40>
  {
    pFlash.ErrorCode |= HAL_FLASH_ERROR_PGP;
 800126e:	4915      	ldr	r1, [pc, #84]	@ (80012c4 <FLASH_SetErrorCode+0x88>)
 8001270:	69ca      	ldr	r2, [r1, #28]
 8001272:	f042 0204 	orr.w	r2, r2, #4
 8001276:	61ca      	str	r2, [r1, #28]

    /* Clear FLASH Programming parallelism error pending bit */
    __HAL_FLASH_CLEAR_FLAG(FLASH_FLAG_PGPERR);
 8001278:	2240      	movs	r2, #64	@ 0x40
 800127a:	60da      	str	r2, [r3, #12]
  }

  if (__HAL_FLASH_GET_FLAG(FLASH_FLAG_PGSERR) != RESET)
 800127c:	68da      	ldr	r2, [r3, #12]
 800127e:	0610      	lsls	r0, r2, #24
 8001280:	d506      	bpl.n	8001290 <FLASH_SetErrorCode+0x54>
  {
    pFlash.ErrorCode |= HAL_FLASH_ERROR_PGS;
 8001282:	4910      	ldr	r1, [pc, #64]	@ (80012c4 <FLASH_SetErrorCode+0x88>)
 8001284:	69ca      	ldr	r2, [r1, #28]
 8001286:	f042 0202 	orr.w	r2, r2, #2
 800128a:	61ca      	str	r2, [r1, #28]

    /* Clear FLASH Programming sequence error pending bit */
    __HAL_FLASH_CLEAR_FLAG(FLASH_FLAG_PGSERR);
 800128c:	2280      	movs	r2, #128	@ 0x80
 800128e:	60da      	str	r2, [r3, #12]
  }
#if defined(FLASH_SR_RDERR)
  if (__HAL_FLASH_GET_FLAG(FLASH_FLAG_RDERR) != RESET)
 8001290:	4b0b      	ldr	r3, [pc, #44]	@ (80012c0 <FLASH_SetErrorCode+0x84>)
 8001292:	68da      	ldr	r2, [r3, #12]
 8001294:	05d1      	lsls	r1, r2, #23
 8001296:	d507      	bpl.n	80012a8 <FLASH_SetErrorCode+0x6c>
  {
    pFlash.ErrorCode |= HAL_FLASH_ERROR_RD;
 8001298:	490a      	ldr	r1, [pc, #40]	@ (80012c4 <FLASH_SetErrorCode+0x88>)
 800129a:	69ca      	ldr	r2, [r1, #28]
 800129c:	f042 0201 	orr.w	r2, r2, #1
 80012a0:	61ca      	str	r2, [r1, #28]

    /* Clear FLASH Proprietary readout protection error pending bit */
    __HAL_FLASH_CLEAR_FLAG(FLASH_FLAG_RDERR);
 80012a2:	f44f 7280 	mov.w	r2, #256	@ 0x100
 80012a6:	60da      	str	r2, [r3, #12]
  }
#endif /* FLASH_SR_RDERR */
  if (__HAL_FLASH_GET_FLAG(FLASH_FLAG_OPERR) != RESET)
 80012a8:	68da      	ldr	r2, [r3, #12]
 80012aa:	0792      	lsls	r2, r2, #30
 80012ac:	d506      	bpl.n	80012bc <FLASH_SetErrorCode+0x80>
  {
    pFlash.ErrorCode |= HAL_FLASH_ERROR_OPERATION;
 80012ae:	4905      	ldr	r1, [pc, #20]	@ (80012c4 <FLASH_SetErrorCode+0x88>)
 80012b0:	69ca      	ldr	r2, [r1, #28]
 80012b2:	f042 0220 	orr.w	r2, r2, #32
 80012b6:	61ca      	str	r2, [r1, #28]

    /* Clear FLASH Operation error pending bit */
    __HAL_FLASH_CLEAR_FLAG(FLASH_FLAG_OPERR);
 80012b8:	2202      	movs	r2, #2
 80012ba:	60da      	str	r2, [r3, #12]
  }
}
 80012bc:	4770      	bx	lr
 80012be:	bf00      	nop
 80012c0:	40023c00 	.word	0x40023c00
 80012c4:	2000000c 	.word	0x2000000c

080012c8 <FLASH_Program_Byte>:
{
 80012c8:	b538      	push	{r3, r4, r5, lr}
  assert_param(IS_FLASH_ADDRESS(Address));
 80012ca:	f100 4378 	add.w	r3, r0, #4160749568	@ 0xf8000000
 80012ce:	f5b3 2f00 	cmp.w	r3, #524288	@ 0x80000
{
 80012d2:	4604      	mov	r4, r0
 80012d4:	460d      	mov	r5, r1
  assert_param(IS_FLASH_ADDRESS(Address));
 80012d6:	d30b      	bcc.n	80012f0 <FLASH_Program_Byte+0x28>
 80012d8:	f100 4360 	add.w	r3, r0, #3758096384	@ 0xe0000000
 80012dc:	f503 4308 	add.w	r3, r3, #34816	@ 0x8800
 80012e0:	f5b3 7f04 	cmp.w	r3, #528	@ 0x210
 80012e4:	d304      	bcc.n	80012f0 <FLASH_Program_Byte+0x28>
 80012e6:	4809      	ldr	r0, [pc, #36]	@ (800130c <FLASH_Program_Byte+0x44>)
 80012e8:	f240 21ba 	movw	r1, #698	@ 0x2ba
 80012ec:	f7ff fdfa 	bl	8000ee4 <assert_failed>
  CLEAR_BIT(FLASH->CR, FLASH_CR_PSIZE);
 80012f0:	4b07      	ldr	r3, [pc, #28]	@ (8001310 <FLASH_Program_Byte+0x48>)
 80012f2:	691a      	ldr	r2, [r3, #16]
 80012f4:	f422 7240 	bic.w	r2, r2, #768	@ 0x300
 80012f8:	611a      	str	r2, [r3, #16]
  FLASH->CR |= FLASH_PSIZE_BYTE;
 80012fa:	691a      	ldr	r2, [r3, #16]
 80012fc:	611a      	str	r2, [r3, #16]
  FLASH->CR |= FLASH_CR_PG;
 80012fe:	691a      	ldr	r2, [r3, #16]
 8001300:	f042 0201 	orr.w	r2, r2, #1
 8001304:	611a      	str	r2, [r3, #16]
  *(__IO uint8_t *)Address = Data;
 8001306:	7025      	strb	r5, [r4, #0]
}
 8001308:	bd38      	pop	{r3, r4, r5, pc}
 800130a:	bf00      	nop
 800130c:	080024e3 	.word	0x080024e3
 8001310:	40023c00 	.word	0x40023c00

08001314 <FLASH_Program_HalfWord>:
{
 8001314:	b538      	push	{r3, r4, r5, lr}
  assert_param(IS_FLASH_ADDRESS(Address));
 8001316:	f100 4378 	add.w	r3, r0, #4160749568	@ 0xf8000000
 800131a:	f5b3 2f00 	cmp.w	r3, #524288	@ 0x80000
{
 800131e:	4604      	mov	r4, r0
 8001320:	460d      	mov	r5, r1
  assert_param(IS_FLASH_ADDRESS(Address));
 8001322:	d30b      	bcc.n	800133c <FLASH_Program_HalfWord+0x28>
 8001324:	f100 4360 	add.w	r3, r0, #3758096384	@ 0xe0000000
 8001328:	f503 4308 	add.w	r3, r3, #34816	@ 0x8800
 800132c:	f5b3 7f04 	cmp.w	r3, #528	@ 0x210
 8001330:	d304      	bcc.n	800133c <FLASH_Program_HalfWord+0x28>
 8001332:	480a      	ldr	r0, [pc, #40]	@ (800135c <FLASH_Program_HalfWord+0x48>)
 8001334:	f240 21a1 	movw	r1, #673	@ 0x2a1
 8001338:	f7ff fdd4 	bl	8000ee4 <assert_failed>
  CLEAR_BIT(FLASH->CR, FLASH_CR_PSIZE);
 800133c:	4b08      	ldr	r3, [pc, #32]	@ (8001360 <FLASH_Program_HalfWord+0x4c>)
 800133e:	691a      	ldr	r2, [r3, #16]
 8001340:	f422 7240 	bic.w	r2, r2, #768	@ 0x300
 8001344:	611a      	str	r2, [r3, #16]
  FLASH->CR |= FLASH_PSIZE_HALF_WORD;
 8001346:	691a      	ldr	r2, [r3, #16]
 8001348:	f442 7280 	orr.w	r2, r2, #256	@ 0x100
 800134c:	611a      	str	r2, [r3, #16]
  FLASH->CR |= FLASH_CR_PG;
 800134e:	691a      	ldr	r2, [r3, #16]
 8001350:	f042 0201 	orr.w	r2, r2, #1
 8001354:	611a      	str	r2, [r3, #16]
  *(__IO uint16_t *)Address = Data;
 8001356:	8025      	strh	r5, [r4, #0]
}
 8001358:	bd38      	pop	{r3, r4, r5, pc}
 800135a:	bf00      	nop
 800135c:	080024e3 	.word	0x080024e3
 8001360:	40023c00 	.word	0x40023c00

08001364 <FLASH_Program_Word>:
{
 8001364:	b538      	push	{r3, r4, r5, lr}
  assert_param(IS_FLASH_ADDRESS(Address));
 8001366:	f100 4378 	add.w	r3, r0, #4160749568	@ 0xf8000000
 800136a:	f5b3 2f00 	cmp.w	r3, #524288	@ 0x80000
{
 800136e:	4604      	mov	r4, r0
 8001370:	460d      	mov	r5, r1
  assert_param(IS_FLASH_ADDRESS(Address));
 8001372:	d30b      	bcc.n	800138c <FLASH_Program_Word+0x28>
 8001374:	f100 4360 	add.w	r3, r0, #3758096384	@ 0xe0000000
 8001378:	f503 4308 	add.w	r3, r3, #34816	@ 0x8800
 800137c:	f5b3 7f04 	cmp.w	r3, #528	@ 0x210
 8001380:	d304      	bcc.n	800138c <FLASH_Program_Word+0x28>
 8001382:	480a      	ldr	r0, [pc, #40]	@ (80013ac <FLASH_Program_Word+0x48>)
 8001384:	f44f 7122 	mov.w	r1, #648	@ 0x288
 8001388:	f7ff fdac 	bl	8000ee4 <assert_failed>
  CLEAR_BIT(FLASH->CR, FLASH_CR_PSIZE);
 800138c:	4b08      	ldr	r3, [pc, #32]	@ (80013b0 <FLASH_Program_Word+0x4c>)
 800138e:	691a      	ldr	r2, [r3, #16]
 8001390:	f422 7240 	bic.w	r2, r2, #768	@ 0x300
 8001394:	611a      	str	r2, [r3, #16]
  FLASH->CR |= FLASH_PSIZE_WORD;
 8001396:	691a      	ldr	r2, [r3, #16]
 8001398:	f442 7200 	orr.w	r2, r2, #512	@ 0x200
 800139c:	611a      	str	r2, [r3, #16]
  FLASH->CR |= FLASH_CR_PG;
 800139e:	691a      	ldr	r2, [r3, #16]
 80013a0:	f042 0201 	orr.w	r2, r2, #1
 80013a4:	611a      	str	r2, [r3, #16]
  *(__IO uint32_t *)Address = Data;
 80013a6:	6025      	str	r5, [r4, #0]
}
 80013a8:	bd38      	pop	{r3, r4, r5, pc}
 80013aa:	bf00      	nop
 80013ac:	080024e3 	.word	0x080024e3
 80013b0:	40023c00 	.word	0x40023c00

080013b4 <FLASH_Program_DoubleWord>:
{
 80013b4:	b570      	push	{r4, r5, r6, lr}
 80013b6:	461d      	mov	r5, r3
  assert_param(IS_FLASH_ADDRESS(Address));
 80013b8:	f100 4378 	add.w	r3, r0, #4160749568	@ 0xf8000000
 80013bc:	f5b3 2f00 	cmp.w	r3, #524288	@ 0x80000
{
 80013c0:	4604      	mov	r4, r0
 80013c2:	4616      	mov	r6, r2
  assert_param(IS_FLASH_ADDRESS(Address));
 80013c4:	d30b      	bcc.n	80013de <FLASH_Program_DoubleWord+0x2a>
 80013c6:	f100 4360 	add.w	r3, r0, #3758096384	@ 0xe0000000
 80013ca:	f503 4308 	add.w	r3, r3, #34816	@ 0x8800
 80013ce:	f5b3 7f04 	cmp.w	r3, #528	@ 0x210
 80013d2:	d304      	bcc.n	80013de <FLASH_Program_DoubleWord+0x2a>
 80013d4:	480b      	ldr	r0, [pc, #44]	@ (8001404 <FLASH_Program_DoubleWord+0x50>)
 80013d6:	f240 2166 	movw	r1, #614	@ 0x266
 80013da:	f7ff fd83 	bl	8000ee4 <assert_failed>
  CLEAR_BIT(FLASH->CR, FLASH_CR_PSIZE);
 80013de:	490a      	ldr	r1, [pc, #40]	@ (8001408 <FLASH_Program_DoubleWord+0x54>)
 80013e0:	690b      	ldr	r3, [r1, #16]
 80013e2:	f423 7340 	bic.w	r3, r3, #768	@ 0x300
 80013e6:	610b      	str	r3, [r1, #16]
  FLASH->CR |= FLASH_PSIZE_DOUBLE_WORD;
 80013e8:	690b      	ldr	r3, [r1, #16]
 80013ea:	f443 7340 	orr.w	r3, r3, #768	@ 0x300
 80013ee:	610b      	str	r3, [r1, #16]
  FLASH->CR |= FLASH_CR_PG;
 80013f0:	690b      	ldr	r3, [r1, #16]
 80013f2:	f043 0301 	orr.w	r3, r3, #1
 80013f6:	610b      	str	r3, [r1, #16]
  *(__IO uint32_t *)Address = (uint32_t)Data;
 80013f8:	6026      	str	r6, [r4, #0]
  __ASM volatile ("isb 0xF":::"memory");
 80013fa:	f3bf 8f6f 	isb	sy
  *(__IO uint32_t *)(Address + 4) = (uint32_t)(Data >> 32);
 80013fe:	6065      	str	r5, [r4, #4]
}
 8001400:	bd70      	pop	{r4, r5, r6, pc}
 8001402:	bf00      	nop
 8001404:	080024e3 	.word	0x080024e3
 8001408:	40023c00 	.word	0x40023c00

0800140c <HAL_FLASH_Unlock>:
  if (READ_BIT(FLASH->CR, FLASH_CR_LOCK) != RESET)
 800140c:	4b06      	ldr	r3, [pc, #24]	@ (8001428 <HAL_FLASH_Unlock+0x1c>)
 800140e:	691a      	ldr	r2, [r3, #16]
 8001410:	2a00      	cmp	r2, #0
    WRITE_REG(FLASH->KEYR, FLASH_KEY1);
 8001412:	bfbf      	itttt	lt
 8001414:	4a05      	ldrlt	r2, [pc, #20]	@ (800142c <HAL_FLASH_Unlock+0x20>)
 8001416:	605a      	strlt	r2, [r3, #4]
    WRITE_REG(FLASH->KEYR, FLASH_KEY2);
 8001418:	f102 3288 	addlt.w	r2, r2, #2290649224	@ 0x88888888
 800141c:	605a      	strlt	r2, [r3, #4]
    if (READ_BIT(FLASH->CR, FLASH_CR_LOCK) != RESET)
 800141e:	bfba      	itte	lt
 8001420:	6918      	ldrlt	r0, [r3, #16]
 8001422:	0fc0      	lsrlt	r0, r0, #31
  HAL_StatusTypeDef status = HAL_OK;
 8001424:	2000      	movge	r0, #0
}
 8001426:	4770      	bx	lr
 8001428:	40023c00 	.word	0x40023c00
 800142c:	45670123 	.word	0x45670123

08001430 <HAL_FLASH_Lock>:
  FLASH->CR |= FLASH_CR_LOCK;
 8001430:	4a03      	ldr	r2, [pc, #12]	@ (8001440 <HAL_FLASH_Lock+0x10>)
 8001432:	6913      	ldr	r3, [r2, #16]
 8001434:	f043 4300 	orr.w	r3, r3, #2147483648	@ 0x80000000
 8001438:	6113      	str	r3, [r2, #16]
}
 800143a:	2000      	movs	r0, #0
 800143c:	4770      	bx	lr
 800143e:	bf00      	nop
 8001440:	40023c00 	.word	0x40023c00

08001444 <FLASH_WaitForLastOperation>:
  pFlash.ErrorCode = HAL_FLASH_ERROR_NONE;
 8001444:	4b11      	ldr	r3, [pc, #68]	@ (800148c <FLASH_WaitForLastOperation+0x48>)
{
 8001446:	b570      	push	{r4, r5, r6, lr}
  pFlash.ErrorCode = HAL_FLASH_ERROR_NONE;
 8001448:	2200      	movs	r2, #0
{
 800144a:	4604      	mov	r4, r0
  pFlash.ErrorCode = HAL_FLASH_ERROR_NONE;
 800144c:	61da      	str	r2, [r3, #28]
  tickstart = HAL_GetTick();
 800144e:	f7ff fe69 	bl	8001124 <HAL_GetTick>
  while (__HAL_FLASH_GET_FLAG(FLASH_FLAG_BSY) != RESET)
 8001452:	4d0f      	ldr	r5, [pc, #60]	@ (8001490 <FLASH_WaitForLastOperation+0x4c>)
  tickstart = HAL_GetTick();
 8001454:	4606      	mov	r6, r0
  while (__HAL_FLASH_GET_FLAG(FLASH_FLAG_BSY) != RESET)
 8001456:	68eb      	ldr	r3, [r5, #12]
 8001458:	03da      	lsls	r2, r3, #15
 800145a:	d40c      	bmi.n	8001476 <FLASH_WaitForLastOperation+0x32>
  if (__HAL_FLASH_GET_FLAG(FLASH_FLAG_EOP) != RESET)
 800145c:	68eb      	ldr	r3, [r5, #12]
 800145e:	07db      	lsls	r3, r3, #31
    __HAL_FLASH_CLEAR_FLAG(FLASH_FLAG_EOP);
 8001460:	bf44      	itt	mi
 8001462:	2301      	movmi	r3, #1
 8001464:	60eb      	strmi	r3, [r5, #12]
  if (__HAL_FLASH_GET_FLAG((FLASH_FLAG_OPERR | FLASH_FLAG_WRPERR | FLASH_FLAG_PGAERR | \
 8001466:	68e8      	ldr	r0, [r5, #12]
 8001468:	f410 70f9 	ands.w	r0, r0, #498	@ 0x1f2
 800146c:	d007      	beq.n	800147e <FLASH_WaitForLastOperation+0x3a>
    FLASH_SetErrorCode();
 800146e:	f7ff fee5 	bl	800123c <FLASH_SetErrorCode>
    return HAL_ERROR;
 8001472:	2001      	movs	r0, #1
 8001474:	e003      	b.n	800147e <FLASH_WaitForLastOperation+0x3a>
    if (Timeout != HAL_MAX_DELAY)
 8001476:	1c61      	adds	r1, r4, #1
 8001478:	d0ed      	beq.n	8001456 <FLASH_WaitForLastOperation+0x12>
      if ((Timeout == 0U) || ((HAL_GetTick() - tickstart) > Timeout))
 800147a:	b90c      	cbnz	r4, 8001480 <FLASH_WaitForLastOperation+0x3c>
        return HAL_TIMEOUT;
 800147c:	2003      	movs	r0, #3
}
 800147e:	bd70      	pop	{r4, r5, r6, pc}
      if ((Timeout == 0U) || ((HAL_GetTick() - tickstart) > Timeout))
 8001480:	f7ff fe50 	bl	8001124 <HAL_GetTick>
 8001484:	1b80      	subs	r0, r0, r6
 8001486:	42a0      	cmp	r0, r4
 8001488:	d9e5      	bls.n	8001456 <FLASH_WaitForLastOperation+0x12>
 800148a:	e7f7      	b.n	800147c <FLASH_WaitForLastOperation+0x38>
 800148c:	2000000c 	.word	0x2000000c
 8001490:	40023c00 	.word	0x40023c00

08001494 <HAL_FLASH_Program>:
{
 8001494:	e92d 41f0 	stmdb	sp!, {r4, r5, r6, r7, r8, lr}
  __HAL_LOCK(&pFlash);
 8001498:	4f1e      	ldr	r7, [pc, #120]	@ (8001514 <HAL_FLASH_Program+0x80>)
{
 800149a:	4698      	mov	r8, r3
  __HAL_LOCK(&pFlash);
 800149c:	7e3b      	ldrb	r3, [r7, #24]
 800149e:	2b01      	cmp	r3, #1
{
 80014a0:	4606      	mov	r6, r0
 80014a2:	460c      	mov	r4, r1
 80014a4:	4615      	mov	r5, r2
  __HAL_LOCK(&pFlash);
 80014a6:	d032      	beq.n	800150e <HAL_FLASH_Program+0x7a>
 80014a8:	2301      	movs	r3, #1
  assert_param(IS_FLASH_TYPEPROGRAM(TypeProgram));
 80014aa:	2803      	cmp	r0, #3
  __HAL_LOCK(&pFlash);
 80014ac:	763b      	strb	r3, [r7, #24]
  assert_param(IS_FLASH_TYPEPROGRAM(TypeProgram));
 80014ae:	d903      	bls.n	80014b8 <HAL_FLASH_Program+0x24>
 80014b0:	4819      	ldr	r0, [pc, #100]	@ (8001518 <HAL_FLASH_Program+0x84>)
 80014b2:	21a9      	movs	r1, #169	@ 0xa9
 80014b4:	f7ff fd16 	bl	8000ee4 <assert_failed>
  status = FLASH_WaitForLastOperation((uint32_t)FLASH_TIMEOUT_VALUE);
 80014b8:	f24c 3050 	movw	r0, #50000	@ 0xc350
 80014bc:	f7ff ffc2 	bl	8001444 <FLASH_WaitForLastOperation>
  if (status == HAL_OK)
 80014c0:	b968      	cbnz	r0, 80014de <HAL_FLASH_Program+0x4a>
    if (TypeProgram == FLASH_TYPEPROGRAM_BYTE)
 80014c2:	b986      	cbnz	r6, 80014e6 <HAL_FLASH_Program+0x52>
      FLASH_Program_Byte(Address, (uint8_t) Data);
 80014c4:	b2e9      	uxtb	r1, r5
 80014c6:	4620      	mov	r0, r4
 80014c8:	f7ff fefe 	bl	80012c8 <FLASH_Program_Byte>
    status = FLASH_WaitForLastOperation((uint32_t)FLASH_TIMEOUT_VALUE);
 80014cc:	f24c 3050 	movw	r0, #50000	@ 0xc350
 80014d0:	f7ff ffb8 	bl	8001444 <FLASH_WaitForLastOperation>
    FLASH->CR &= (~FLASH_CR_PG);
 80014d4:	4a11      	ldr	r2, [pc, #68]	@ (800151c <HAL_FLASH_Program+0x88>)
 80014d6:	6913      	ldr	r3, [r2, #16]
 80014d8:	f023 0301 	bic.w	r3, r3, #1
 80014dc:	6113      	str	r3, [r2, #16]
  __HAL_UNLOCK(&pFlash);
 80014de:	2300      	movs	r3, #0
 80014e0:	763b      	strb	r3, [r7, #24]
}
 80014e2:	e8bd 81f0 	ldmia.w	sp!, {r4, r5, r6, r7, r8, pc}
    else if (TypeProgram == FLASH_TYPEPROGRAM_HALFWORD)
 80014e6:	2e01      	cmp	r6, #1
 80014e8:	d104      	bne.n	80014f4 <HAL_FLASH_Program+0x60>
      FLASH_Program_HalfWord(Address, (uint16_t) Data);
 80014ea:	b2a9      	uxth	r1, r5
 80014ec:	4620      	mov	r0, r4
 80014ee:	f7ff ff11 	bl	8001314 <FLASH_Program_HalfWord>
 80014f2:	e7eb      	b.n	80014cc <HAL_FLASH_Program+0x38>
    else if (TypeProgram == FLASH_TYPEPROGRAM_WORD)
 80014f4:	2e02      	cmp	r6, #2
 80014f6:	d104      	bne.n	8001502 <HAL_FLASH_Program+0x6e>
      FLASH_Program_Word(Address, (uint32_t) Data);
 80014f8:	4629      	mov	r1, r5
 80014fa:	4620      	mov	r0, r4
 80014fc:	f7ff ff32 	bl	8001364 <FLASH_Program_Word>
 8001500:	e7e4      	b.n	80014cc <HAL_FLASH_Program+0x38>
      FLASH_Program_DoubleWord(Address, Data);
 8001502:	462a      	mov	r2, r5
 8001504:	4643      	mov	r3, r8
 8001506:	4620      	mov	r0, r4
 8001508:	f7ff ff54 	bl	80013b4 <FLASH_Program_DoubleWord>
 800150c:	e7de      	b.n	80014cc <HAL_FLASH_Program+0x38>
  __HAL_LOCK(&pFlash);
 800150e:	2002      	movs	r0, #2
 8001510:	e7e7      	b.n	80014e2 <HAL_FLASH_Program+0x4e>
 8001512:	bf00      	nop
 8001514:	2000000c 	.word	0x2000000c
 8001518:	080024e3 	.word	0x080024e3
 800151c:	40023c00 	.word	0x40023c00

08001520 <FLASH_MassErase>:
  * @retval None
  */
static void FLASH_MassErase(uint8_t VoltageRange, uint32_t Banks)
{
  /* Check the parameters */
  assert_param(IS_VOLTAGERANGE(VoltageRange));
 8001520:	2803      	cmp	r0, #3
{
 8001522:	b538      	push	{r3, r4, r5, lr}
 8001524:	4604      	mov	r4, r0
 8001526:	460d      	mov	r5, r1
  assert_param(IS_VOLTAGERANGE(VoltageRange));
 8001528:	d904      	bls.n	8001534 <FLASH_MassErase+0x14>
 800152a:	480e      	ldr	r0, [pc, #56]	@ (8001564 <FLASH_MassErase+0x44>)
 800152c:	f240 31b7 	movw	r1, #951	@ 0x3b7
 8001530:	f7ff fcd8 	bl	8000ee4 <assert_failed>
  assert_param(IS_FLASH_BANK(Banks));
 8001534:	2d01      	cmp	r5, #1
 8001536:	d004      	beq.n	8001542 <FLASH_MassErase+0x22>
 8001538:	480a      	ldr	r0, [pc, #40]	@ (8001564 <FLASH_MassErase+0x44>)
 800153a:	f44f 716e 	mov.w	r1, #952	@ 0x3b8
 800153e:	f7ff fcd1 	bl	8000ee4 <assert_failed>

  /* If the previous operation is completed, proceed to erase all sectors */
  CLEAR_BIT(FLASH->CR, FLASH_CR_PSIZE);
 8001542:	4b09      	ldr	r3, [pc, #36]	@ (8001568 <FLASH_MassErase+0x48>)
 8001544:	691a      	ldr	r2, [r3, #16]
 8001546:	f422 7240 	bic.w	r2, r2, #768	@ 0x300
 800154a:	611a      	str	r2, [r3, #16]
  FLASH->CR |= FLASH_CR_MER;
 800154c:	691a      	ldr	r2, [r3, #16]
 800154e:	f042 0204 	orr.w	r2, r2, #4
 8001552:	611a      	str	r2, [r3, #16]
  FLASH->CR |= FLASH_CR_STRT | ((uint32_t)VoltageRange << 8U);
 8001554:	6918      	ldr	r0, [r3, #16]
 8001556:	ea40 2004 	orr.w	r0, r0, r4, lsl #8
 800155a:	f440 3080 	orr.w	r0, r0, #65536	@ 0x10000
 800155e:	6118      	str	r0, [r3, #16]
}
 8001560:	bd38      	pop	{r3, r4, r5, pc}
 8001562:	bf00      	nop
 8001564:	0800251d 	.word	0x0800251d
 8001568:	40023c00 	.word	0x40023c00

0800156c <FLASH_Erase_Sector>:
void FLASH_Erase_Sector(uint32_t Sector, uint8_t VoltageRange)
{
  uint32_t tmp_psize = 0U;

  /* Check the parameters */
  assert_param(IS_FLASH_SECTOR(Sector));
 800156c:	2807      	cmp	r0, #7
{
 800156e:	b538      	push	{r3, r4, r5, lr}
 8001570:	4605      	mov	r5, r0
 8001572:	460c      	mov	r4, r1
  assert_param(IS_FLASH_SECTOR(Sector));
 8001574:	d904      	bls.n	8001580 <FLASH_Erase_Sector+0x14>
 8001576:	4814      	ldr	r0, [pc, #80]	@ (80015c8 <FLASH_Erase_Sector+0x5c>)
 8001578:	f240 31d6 	movw	r1, #982	@ 0x3d6
 800157c:	f7ff fcb2 	bl	8000ee4 <assert_failed>
  assert_param(IS_VOLTAGERANGE(VoltageRange));
 8001580:	2c03      	cmp	r4, #3
 8001582:	d91d      	bls.n	80015c0 <FLASH_Erase_Sector+0x54>
 8001584:	4810      	ldr	r0, [pc, #64]	@ (80015c8 <FLASH_Erase_Sector+0x5c>)
 8001586:	f240 31d7 	movw	r1, #983	@ 0x3d7
 800158a:	f7ff fcab 	bl	8000ee4 <assert_failed>
{
 800158e:	f44f 7440 	mov.w	r4, #768	@ 0x300
  {
    tmp_psize = FLASH_PSIZE_DOUBLE_WORD;
  }

  /* If the previous operation is completed, proceed to erase the sector */
  CLEAR_BIT(FLASH->CR, FLASH_CR_PSIZE);
 8001592:	4b0e      	ldr	r3, [pc, #56]	@ (80015cc <FLASH_Erase_Sector+0x60>)
 8001594:	691a      	ldr	r2, [r3, #16]
 8001596:	f422 7240 	bic.w	r2, r2, #768	@ 0x300
 800159a:	611a      	str	r2, [r3, #16]
  FLASH->CR |= tmp_psize;
 800159c:	691a      	ldr	r2, [r3, #16]
 800159e:	4322      	orrs	r2, r4
 80015a0:	611a      	str	r2, [r3, #16]
  CLEAR_BIT(FLASH->CR, FLASH_CR_SNB);
 80015a2:	691a      	ldr	r2, [r3, #16]
 80015a4:	f022 02f8 	bic.w	r2, r2, #248	@ 0xf8
 80015a8:	611a      	str	r2, [r3, #16]
  FLASH->CR |= FLASH_CR_SER | (Sector << FLASH_CR_SNB_Pos);
 80015aa:	6918      	ldr	r0, [r3, #16]
 80015ac:	ea40 00c5 	orr.w	r0, r0, r5, lsl #3
 80015b0:	f040 0002 	orr.w	r0, r0, #2
 80015b4:	6118      	str	r0, [r3, #16]
  FLASH->CR |= FLASH_CR_STRT;
 80015b6:	691a      	ldr	r2, [r3, #16]
 80015b8:	f442 3280 	orr.w	r2, r2, #65536	@ 0x10000
 80015bc:	611a      	str	r2, [r3, #16]
}
 80015be:	bd38      	pop	{r3, r4, r5, pc}
  if (VoltageRange == FLASH_VOLTAGE_RANGE_1)
 80015c0:	d0e5      	beq.n	800158e <FLASH_Erase_Sector+0x22>
 80015c2:	0224      	lsls	r4, r4, #8
 80015c4:	e7e5      	b.n	8001592 <FLASH_Erase_Sector+0x26>
 80015c6:	bf00      	nop
 80015c8:	0800251d 	.word	0x0800251d
 80015cc:	40023c00 	.word	0x40023c00

080015d0 <FLASH_FlushCaches>:
  * @retval None
  */
void FLASH_FlushCaches(void)
{
  /* Flush instruction cache  */
  if (READ_BIT(FLASH->ACR, FLASH_ACR_ICEN) != RESET)
 80015d0:	4b14      	ldr	r3, [pc, #80]	@ (8001624 <FLASH_FlushCaches+0x54>)
 80015d2:	681a      	ldr	r2, [r3, #0]
 80015d4:	0591      	lsls	r1, r2, #22
 80015d6:	d50f      	bpl.n	80015f8 <FLASH_FlushCaches+0x28>
  {
    /* Disable instruction cache  */
    __HAL_FLASH_INSTRUCTION_CACHE_DISABLE();
 80015d8:	681a      	ldr	r2, [r3, #0]
 80015da:	f422 7200 	bic.w	r2, r2, #512	@ 0x200
 80015de:	601a      	str	r2, [r3, #0]
    /* Reset instruction cache */
    __HAL_FLASH_INSTRUCTION_CACHE_RESET();
 80015e0:	681a      	ldr	r2, [r3, #0]
 80015e2:	f442 6200 	orr.w	r2, r2, #2048	@ 0x800
 80015e6:	601a      	str	r2, [r3, #0]
 80015e8:	681a      	ldr	r2, [r3, #0]
 80015ea:	f422 6200 	bic.w	r2, r2, #2048	@ 0x800
 80015ee:	601a      	str	r2, [r3, #0]
    /* Enable instruction cache */
    __HAL_FLASH_INSTRUCTION_CACHE_ENABLE();
 80015f0:	681a      	ldr	r2, [r3, #0]
 80015f2:	f442 7200 	orr.w	r2, r2, #512	@ 0x200
 80015f6:	601a      	str	r2, [r3, #0]
  }

  /* Flush data cache */
  if (READ_BIT(FLASH->ACR, FLASH_ACR_DCEN) != RESET)
 80015f8:	4b0a      	ldr	r3, [pc, #40]	@ (8001624 <FLASH_FlushCaches+0x54>)
 80015fa:	681a      	ldr	r2, [r3, #0]
 80015fc:	0552      	lsls	r2, r2, #21
 80015fe:	d50f      	bpl.n	8001620 <FLASH_FlushCaches+0x50>
  {
    /* Disable data cache  */
    __HAL_FLASH_DATA_CACHE_DISABLE();
 8001600:	681a      	ldr	r2, [r3, #0]
 8001602:	f422 6280 	bic.w	r2, r2, #1024	@ 0x400
 8001606:	601a      	str	r2, [r3, #0]
    /* Reset data cache */
    __HAL_FLASH_DATA_CACHE_RESET();
 8001608:	681a      	ldr	r2, [r3, #0]
 800160a:	f442 5280 	orr.w	r2, r2, #4096	@ 0x1000
 800160e:	601a      	str	r2, [r3, #0]
 8001610:	681a      	ldr	r2, [r3, #0]
 8001612:	f422 5280 	bic.w	r2, r2, #4096	@ 0x1000
 8001616:	601a      	str	r2, [r3, #0]
    /* Enable data cache */
    __HAL_FLASH_DATA_CACHE_ENABLE();
 8001618:	681a      	ldr	r2, [r3, #0]
 800161a:	f442 6280 	orr.w	r2, r2, #1024	@ 0x400
 800161e:	601a      	str	r2, [r3, #0]
  }
}
 8001620:	4770      	bx	lr
 8001622:	bf00      	nop
 8001624:	40023c00 	.word	0x40023c00

08001628 <HAL_FLASHEx_Erase>:
{
 8001628:	e92d 43f8 	stmdb	sp!, {r3, r4, r5, r6, r7, r8, r9, lr}
  __HAL_LOCK(&pFlash);
 800162c:	f8df 80bc 	ldr.w	r8, [pc, #188]	@ 80016ec <HAL_FLASHEx_Erase+0xc4>
 8001630:	f898 3018 	ldrb.w	r3, [r8, #24]
 8001634:	2b01      	cmp	r3, #1
{
 8001636:	4604      	mov	r4, r0
 8001638:	460f      	mov	r7, r1
  __HAL_LOCK(&pFlash);
 800163a:	d051      	beq.n	80016e0 <HAL_FLASHEx_Erase+0xb8>
 800163c:	2301      	movs	r3, #1
 800163e:	f888 3018 	strb.w	r3, [r8, #24]
  assert_param(IS_FLASH_TYPEERASE(pEraseInit->TypeErase));
 8001642:	6803      	ldr	r3, [r0, #0]
 8001644:	2b01      	cmp	r3, #1
 8001646:	d903      	bls.n	8001650 <HAL_FLASHEx_Erase+0x28>
 8001648:	4826      	ldr	r0, [pc, #152]	@ (80016e4 <HAL_FLASHEx_Erase+0xbc>)
 800164a:	21a9      	movs	r1, #169	@ 0xa9
 800164c:	f7ff fc4a 	bl	8000ee4 <assert_failed>
  status = FLASH_WaitForLastOperation((uint32_t)FLASH_TIMEOUT_VALUE);
 8001650:	f24c 3050 	movw	r0, #50000	@ 0xc350
 8001654:	f7ff fef6 	bl	8001444 <FLASH_WaitForLastOperation>
  if (status == HAL_OK)
 8001658:	4605      	mov	r5, r0
 800165a:	b9a8      	cbnz	r0, 8001688 <HAL_FLASHEx_Erase+0x60>
    *SectorError = 0xFFFFFFFFU;
 800165c:	f04f 33ff 	mov.w	r3, #4294967295
 8001660:	603b      	str	r3, [r7, #0]
    if (pEraseInit->TypeErase == FLASH_TYPEERASE_MASSERASE)
 8001662:	6823      	ldr	r3, [r4, #0]
 8001664:	2b01      	cmp	r3, #1
 8001666:	d115      	bne.n	8001694 <HAL_FLASHEx_Erase+0x6c>
      FLASH_MassErase((uint8_t) pEraseInit->VoltageRange, pEraseInit->Banks);
 8001668:	6861      	ldr	r1, [r4, #4]
 800166a:	7c20      	ldrb	r0, [r4, #16]
 800166c:	f7ff ff58 	bl	8001520 <FLASH_MassErase>
      status = FLASH_WaitForLastOperation((uint32_t)FLASH_TIMEOUT_VALUE);
 8001670:	f24c 3050 	movw	r0, #50000	@ 0xc350
 8001674:	f7ff fee6 	bl	8001444 <FLASH_WaitForLastOperation>
      FLASH->CR &= (~FLASH_MER_BIT);
 8001678:	4a1b      	ldr	r2, [pc, #108]	@ (80016e8 <HAL_FLASHEx_Erase+0xc0>)
 800167a:	6913      	ldr	r3, [r2, #16]
 800167c:	f023 0304 	bic.w	r3, r3, #4
      status = FLASH_WaitForLastOperation((uint32_t)FLASH_TIMEOUT_VALUE);
 8001680:	4605      	mov	r5, r0
      FLASH->CR &= (~FLASH_MER_BIT);
 8001682:	6113      	str	r3, [r2, #16]
    FLASH_FlushCaches();
 8001684:	f7ff ffa4 	bl	80015d0 <FLASH_FlushCaches>
  __HAL_UNLOCK(&pFlash);
 8001688:	2300      	movs	r3, #0
 800168a:	f888 3018 	strb.w	r3, [r8, #24]
}
 800168e:	4628      	mov	r0, r5
 8001690:	e8bd 83f8 	ldmia.w	sp!, {r3, r4, r5, r6, r7, r8, r9, pc}
      assert_param(IS_FLASH_NBSECTORS(pEraseInit->NbSectors + pEraseInit->Sector));
 8001694:	e9d4 2302 	ldrd	r2, r3, [r4, #8]
 8001698:	4413      	add	r3, r2
 800169a:	3b01      	subs	r3, #1
 800169c:	2b07      	cmp	r3, #7
 800169e:	d903      	bls.n	80016a8 <HAL_FLASHEx_Erase+0x80>
 80016a0:	4810      	ldr	r0, [pc, #64]	@ (80016e4 <HAL_FLASHEx_Erase+0xbc>)
 80016a2:	21c1      	movs	r1, #193	@ 0xc1
 80016a4:	f7ff fc1e 	bl	8000ee4 <assert_failed>
      for (index = pEraseInit->Sector; index < (pEraseInit->NbSectors + pEraseInit->Sector); index++)
 80016a8:	68a6      	ldr	r6, [r4, #8]
        CLEAR_BIT(FLASH->CR, (FLASH_CR_SER | FLASH_CR_SNB));
 80016aa:	f8df 903c 	ldr.w	r9, [pc, #60]	@ 80016e8 <HAL_FLASHEx_Erase+0xc0>
      for (index = pEraseInit->Sector; index < (pEraseInit->NbSectors + pEraseInit->Sector); index++)
 80016ae:	e9d4 2302 	ldrd	r2, r3, [r4, #8]
 80016b2:	4413      	add	r3, r2
 80016b4:	42b3      	cmp	r3, r6
 80016b6:	d9e5      	bls.n	8001684 <HAL_FLASHEx_Erase+0x5c>
        FLASH_Erase_Sector(index, (uint8_t) pEraseInit->VoltageRange);
 80016b8:	7c21      	ldrb	r1, [r4, #16]
 80016ba:	4630      	mov	r0, r6
 80016bc:	f7ff ff56 	bl	800156c <FLASH_Erase_Sector>
        status = FLASH_WaitForLastOperation((uint32_t)FLASH_TIMEOUT_VALUE);
 80016c0:	f24c 3050 	movw	r0, #50000	@ 0xc350
 80016c4:	f7ff febe 	bl	8001444 <FLASH_WaitForLastOperation>
        CLEAR_BIT(FLASH->CR, (FLASH_CR_SER | FLASH_CR_SNB));
 80016c8:	f8d9 3010 	ldr.w	r3, [r9, #16]
 80016cc:	f023 03fa 	bic.w	r3, r3, #250	@ 0xfa
 80016d0:	f8c9 3010 	str.w	r3, [r9, #16]
        if (status != HAL_OK)
 80016d4:	b110      	cbz	r0, 80016dc <HAL_FLASHEx_Erase+0xb4>
          *SectorError = index;
 80016d6:	603e      	str	r6, [r7, #0]
        status = FLASH_WaitForLastOperation((uint32_t)FLASH_TIMEOUT_VALUE);
 80016d8:	4605      	mov	r5, r0
          break;
 80016da:	e7d3      	b.n	8001684 <HAL_FLASHEx_Erase+0x5c>
      for (index = pEraseInit->Sector; index < (pEraseInit->NbSectors + pEraseInit->Sector); index++)
 80016dc:	3601      	adds	r6, #1
 80016de:	e7e6      	b.n	80016ae <HAL_FLASHEx_Erase+0x86>
  __HAL_LOCK(&pFlash);
 80016e0:	2502      	movs	r5, #2
 80016e2:	e7d4      	b.n	800168e <HAL_FLASHEx_Erase+0x66>
 80016e4:	0800251d 	.word	0x0800251d
 80016e8:	40023c00 	.word	0x40023c00
 80016ec:	2000000c 	.word	0x2000000c

080016f0 <HAL_GPIO_Init>:
  uint32_t ioposition = 0x00U;
  uint32_t iocurrent = 0x00U;
  uint32_t temp = 0x00U;

  /* Check the parameters */
  assert_param(IS_GPIO_ALL_INSTANCE(GPIOx));
 80016f0:	4b95      	ldr	r3, [pc, #596]	@ (8001948 <HAL_GPIO_Init+0x258>)
 80016f2:	4298      	cmp	r0, r3
{
 80016f4:	e92d 4ff7 	stmdb	sp!, {r0, r1, r2, r4, r5, r6, r7, r8, r9, sl, fp, lr}
 80016f8:	4604      	mov	r4, r0
 80016fa:	460d      	mov	r5, r1
  assert_param(IS_GPIO_ALL_INSTANCE(GPIOx));
 80016fc:	d017      	beq.n	800172e <HAL_GPIO_Init+0x3e>
 80016fe:	f503 6380 	add.w	r3, r3, #1024	@ 0x400
 8001702:	4298      	cmp	r0, r3
 8001704:	d013      	beq.n	800172e <HAL_GPIO_Init+0x3e>
 8001706:	f503 6380 	add.w	r3, r3, #1024	@ 0x400
 800170a:	4298      	cmp	r0, r3
 800170c:	d00f      	beq.n	800172e <HAL_GPIO_Init+0x3e>
 800170e:	f503 6380 	add.w	r3, r3, #1024	@ 0x400
 8001712:	4298      	cmp	r0, r3
 8001714:	d00b      	beq.n	800172e <HAL_GPIO_Init+0x3e>
 8001716:	f503 6380 	add.w	r3, r3, #1024	@ 0x400
 800171a:	4298      	cmp	r0, r3
 800171c:	d007      	beq.n	800172e <HAL_GPIO_Init+0x3e>
 800171e:	f503 6340 	add.w	r3, r3, #3072	@ 0xc00
 8001722:	4298      	cmp	r0, r3
 8001724:	d003      	beq.n	800172e <HAL_GPIO_Init+0x3e>
 8001726:	4889      	ldr	r0, [pc, #548]	@ (800194c <HAL_GPIO_Init+0x25c>)
 8001728:	21ac      	movs	r1, #172	@ 0xac
 800172a:	f7ff fbdb 	bl	8000ee4 <assert_failed>
  assert_param(IS_GPIO_PIN(GPIO_Init->Pin));
 800172e:	682b      	ldr	r3, [r5, #0]
 8001730:	b29a      	uxth	r2, r3
 8001732:	b112      	cbz	r2, 800173a <HAL_GPIO_Init+0x4a>
 8001734:	f5b3 3f80 	cmp.w	r3, #65536	@ 0x10000
 8001738:	d303      	bcc.n	8001742 <HAL_GPIO_Init+0x52>
 800173a:	4884      	ldr	r0, [pc, #528]	@ (800194c <HAL_GPIO_Init+0x25c>)
 800173c:	21ad      	movs	r1, #173	@ 0xad
 800173e:	f7ff fbd1 	bl	8000ee4 <assert_failed>
  assert_param(IS_GPIO_MODE(GPIO_Init->Mode));
 8001742:	686b      	ldr	r3, [r5, #4]
 8001744:	f5b3 1f04 	cmp.w	r3, #2162688	@ 0x210000
 8001748:	d012      	beq.n	8001770 <HAL_GPIO_Init+0x80>
 800174a:	f200 80ed 	bhi.w	8001928 <HAL_GPIO_Init+0x238>
 800174e:	f5b3 1f88 	cmp.w	r3, #1114112	@ 0x110000
 8001752:	d00d      	beq.n	8001770 <HAL_GPIO_Init+0x80>
 8001754:	d809      	bhi.n	800176a <HAL_GPIO_Init+0x7a>
 8001756:	2b03      	cmp	r3, #3
 8001758:	d90a      	bls.n	8001770 <HAL_GPIO_Init+0x80>
 800175a:	3b11      	subs	r3, #17
 800175c:	2b01      	cmp	r3, #1
 800175e:	d907      	bls.n	8001770 <HAL_GPIO_Init+0x80>
 8001760:	487a      	ldr	r0, [pc, #488]	@ (800194c <HAL_GPIO_Init+0x25c>)
 8001762:	21ae      	movs	r1, #174	@ 0xae
 8001764:	f7ff fbbe 	bl	8000ee4 <assert_failed>

  /* Configure the port pins */
  for(position = 0U; position < GPIO_NUMBER; position++)
 8001768:	e002      	b.n	8001770 <HAL_GPIO_Init+0x80>
 800176a:	f5b3 1f90 	cmp.w	r3, #1179648	@ 0x120000
 800176e:	d1f7      	bne.n	8001760 <HAL_GPIO_Init+0x70>
{
 8001770:	2700      	movs	r7, #0
        temp &= ~(0x0FU << (4U * (position & 0x03U)));
        temp |= ((uint32_t)(GPIO_GET_INDEX(GPIOx)) << (4U * (position & 0x03U)));
        SYSCFG->EXTICR[position >> 2U] = temp;

        /* Clear Rising Falling edge configuration */
        temp = EXTI->RTSR;
 8001772:	f8df 91e4 	ldr.w	r9, [pc, #484]	@ 8001958 <HAL_GPIO_Init+0x268>
        temp |= ((uint32_t)(GPIO_GET_INDEX(GPIOx)) << (4U * (position & 0x03U)));
 8001776:	f8df 81e4 	ldr.w	r8, [pc, #484]	@ 800195c <HAL_GPIO_Init+0x26c>
{
 800177a:	463e      	mov	r6, r7
    iocurrent = (uint32_t)(GPIO_Init->Pin) & ioposition;
 800177c:	682b      	ldr	r3, [r5, #0]
    ioposition = 0x01U << position;
 800177e:	f04f 0b01 	mov.w	fp, #1
 8001782:	fa0b fb06 	lsl.w	fp, fp, r6
    iocurrent = (uint32_t)(GPIO_Init->Pin) & ioposition;
 8001786:	ea0b 0a03 	and.w	sl, fp, r3
    if(iocurrent == ioposition)
 800178a:	ea3b 0303 	bics.w	r3, fp, r3
 800178e:	f040 80c2 	bne.w	8001916 <HAL_GPIO_Init+0x226>
      if(((GPIO_Init->Mode & GPIO_MODE) == MODE_OUTPUT) || \
 8001792:	686b      	ldr	r3, [r5, #4]
 8001794:	f003 0303 	and.w	r3, r3, #3
 8001798:	3b01      	subs	r3, #1
 800179a:	2b01      	cmp	r3, #1
 800179c:	d818      	bhi.n	80017d0 <HAL_GPIO_Init+0xe0>
        assert_param(IS_GPIO_SPEED(GPIO_Init->Speed));
 800179e:	68eb      	ldr	r3, [r5, #12]
 80017a0:	2b03      	cmp	r3, #3
 80017a2:	d903      	bls.n	80017ac <HAL_GPIO_Init+0xbc>
 80017a4:	4869      	ldr	r0, [pc, #420]	@ (800194c <HAL_GPIO_Init+0x25c>)
 80017a6:	21c0      	movs	r1, #192	@ 0xc0
 80017a8:	f7ff fb9c 	bl	8000ee4 <assert_failed>
        temp = GPIOx->OSPEEDR; 
 80017ac:	68a2      	ldr	r2, [r4, #8]
        temp &= ~(GPIO_OSPEEDER_OSPEEDR0 << (position * 2U));
 80017ae:	2303      	movs	r3, #3
 80017b0:	40bb      	lsls	r3, r7
 80017b2:	ea22 0203 	bic.w	r2, r2, r3
        temp |= (GPIO_Init->Speed << (position * 2U));
 80017b6:	68eb      	ldr	r3, [r5, #12]
 80017b8:	40bb      	lsls	r3, r7
 80017ba:	4313      	orrs	r3, r2
        GPIOx->OSPEEDR = temp;
 80017bc:	60a3      	str	r3, [r4, #8]
        temp |= (((GPIO_Init->Mode & OUTPUT_TYPE) >> OUTPUT_TYPE_Pos) << position);
 80017be:	686b      	ldr	r3, [r5, #4]
        temp = GPIOx->OTYPER;
 80017c0:	6862      	ldr	r2, [r4, #4]
        temp |= (((GPIO_Init->Mode & OUTPUT_TYPE) >> OUTPUT_TYPE_Pos) << position);
 80017c2:	f3c3 1300 	ubfx	r3, r3, #4, #1
        temp &= ~(GPIO_OTYPER_OT_0 << position) ;
 80017c6:	ea22 020b 	bic.w	r2, r2, fp
        temp |= (((GPIO_Init->Mode & OUTPUT_TYPE) >> OUTPUT_TYPE_Pos) << position);
 80017ca:	40b3      	lsls	r3, r6
 80017cc:	4313      	orrs	r3, r2
        GPIOx->OTYPER = temp;
 80017ce:	6063      	str	r3, [r4, #4]
      if((GPIO_Init->Mode & GPIO_MODE) != MODE_ANALOG)
 80017d0:	686b      	ldr	r3, [r5, #4]
 80017d2:	f003 0303 	and.w	r3, r3, #3
 80017d6:	2b03      	cmp	r3, #3
 80017d8:	d032      	beq.n	8001840 <HAL_GPIO_Init+0x150>
        assert_param(IS_GPIO_PULL(GPIO_Init->Pull));
 80017da:	68ab      	ldr	r3, [r5, #8]
 80017dc:	2b02      	cmp	r3, #2
 80017de:	d903      	bls.n	80017e8 <HAL_GPIO_Init+0xf8>
 80017e0:	485a      	ldr	r0, [pc, #360]	@ (800194c <HAL_GPIO_Init+0x25c>)
 80017e2:	21d1      	movs	r1, #209	@ 0xd1
 80017e4:	f7ff fb7e 	bl	8000ee4 <assert_failed>
        temp = GPIOx->PUPDR;
 80017e8:	68e2      	ldr	r2, [r4, #12]
        temp &= ~(GPIO_PUPDR_PUPDR0 << (position * 2U));
 80017ea:	2303      	movs	r3, #3
 80017ec:	40bb      	lsls	r3, r7
 80017ee:	ea22 0203 	bic.w	r2, r2, r3
        temp |= ((GPIO_Init->Pull) << (position * 2U));
 80017f2:	68ab      	ldr	r3, [r5, #8]
 80017f4:	40bb      	lsls	r3, r7
 80017f6:	4313      	orrs	r3, r2
        GPIOx->PUPDR = temp;
 80017f8:	60e3      	str	r3, [r4, #12]
      if((GPIO_Init->Mode & GPIO_MODE) == MODE_AF)
 80017fa:	686b      	ldr	r3, [r5, #4]
 80017fc:	f003 0303 	and.w	r3, r3, #3
 8001800:	2b02      	cmp	r3, #2
 8001802:	d11d      	bne.n	8001840 <HAL_GPIO_Init+0x150>
        assert_param(IS_GPIO_AF(GPIO_Init->Alternate));
 8001804:	692b      	ldr	r3, [r5, #16]
 8001806:	b163      	cbz	r3, 8001822 <HAL_GPIO_Init+0x132>
 8001808:	3b01      	subs	r3, #1
 800180a:	2b0e      	cmp	r3, #14
 800180c:	d805      	bhi.n	800181a <HAL_GPIO_Init+0x12a>
 800180e:	f644 32ff 	movw	r2, #19455	@ 0x4bff
 8001812:	fa22 f303 	lsr.w	r3, r2, r3
 8001816:	07db      	lsls	r3, r3, #31
 8001818:	d403      	bmi.n	8001822 <HAL_GPIO_Init+0x132>
 800181a:	484c      	ldr	r0, [pc, #304]	@ (800194c <HAL_GPIO_Init+0x25c>)
 800181c:	21de      	movs	r1, #222	@ 0xde
 800181e:	f7ff fb61 	bl	8000ee4 <assert_failed>
        temp = GPIOx->AFR[position >> 3U];
 8001822:	08f2      	lsrs	r2, r6, #3
 8001824:	eb04 0282 	add.w	r2, r4, r2, lsl #2
        temp &= ~(0xFU << ((uint32_t)(position & 0x07U) * 4U)) ;
 8001828:	f006 0107 	and.w	r1, r6, #7
        temp = GPIOx->AFR[position >> 3U];
 800182c:	6a10      	ldr	r0, [r2, #32]
        temp &= ~(0xFU << ((uint32_t)(position & 0x07U) * 4U)) ;
 800182e:	0089      	lsls	r1, r1, #2
 8001830:	230f      	movs	r3, #15
 8001832:	408b      	lsls	r3, r1
 8001834:	ea20 0003 	bic.w	r0, r0, r3
        temp |= ((uint32_t)(GPIO_Init->Alternate) << (((uint32_t)position & 0x07U) * 4U));
 8001838:	692b      	ldr	r3, [r5, #16]
 800183a:	408b      	lsls	r3, r1
 800183c:	4303      	orrs	r3, r0
        GPIOx->AFR[position >> 3U] = temp;
 800183e:	6213      	str	r3, [r2, #32]
      temp = GPIOx->MODER;
 8001840:	6820      	ldr	r0, [r4, #0]
      temp &= ~(GPIO_MODER_MODER0 << (position * 2U));
 8001842:	2303      	movs	r3, #3
 8001844:	fa03 f207 	lsl.w	r2, r3, r7
 8001848:	ea20 0002 	bic.w	r0, r0, r2
      temp |= ((GPIO_Init->Mode & GPIO_MODE) << (position * 2U));
 800184c:	686a      	ldr	r2, [r5, #4]
 800184e:	ea02 0103 	and.w	r1, r2, r3
 8001852:	40b9      	lsls	r1, r7
 8001854:	4301      	orrs	r1, r0
      if((GPIO_Init->Mode & EXTI_MODE) != 0x00U)
 8001856:	f412 3f40 	tst.w	r2, #196608	@ 0x30000
      GPIOx->MODER = temp;
 800185a:	6021      	str	r1, [r4, #0]
      if((GPIO_Init->Mode & EXTI_MODE) != 0x00U)
 800185c:	d05b      	beq.n	8001916 <HAL_GPIO_Init+0x226>
        __HAL_RCC_SYSCFG_CLK_ENABLE();
 800185e:	493c      	ldr	r1, [pc, #240]	@ (8001950 <HAL_GPIO_Init+0x260>)
 8001860:	f04f 0b00 	mov.w	fp, #0
 8001864:	f8cd b004 	str.w	fp, [sp, #4]
 8001868:	6c48      	ldr	r0, [r1, #68]	@ 0x44
 800186a:	f440 4080 	orr.w	r0, r0, #16384	@ 0x4000
 800186e:	6448      	str	r0, [r1, #68]	@ 0x44
 8001870:	6c49      	ldr	r1, [r1, #68]	@ 0x44
 8001872:	f401 4180 	and.w	r1, r1, #16384	@ 0x4000
 8001876:	9101      	str	r1, [sp, #4]
 8001878:	9901      	ldr	r1, [sp, #4]
        temp = SYSCFG->EXTICR[position >> 2U];
 800187a:	f026 0103 	bic.w	r1, r6, #3
 800187e:	f101 4180 	add.w	r1, r1, #1073741824	@ 0x40000000
 8001882:	f501 319c 	add.w	r1, r1, #79872	@ 0x13800
        temp &= ~(0x0FU << (4U * (position & 0x03U)));
 8001886:	ea06 0c03 	and.w	ip, r6, r3
        temp = SYSCFG->EXTICR[position >> 2U];
 800188a:	6888      	ldr	r0, [r1, #8]
        temp &= ~(0x0FU << (4U * (position & 0x03U)));
 800188c:	ea4f 0c8c 	mov.w	ip, ip, lsl #2
 8001890:	f04f 0e0f 	mov.w	lr, #15
 8001894:	fa0e fe0c 	lsl.w	lr, lr, ip
 8001898:	ea20 000e 	bic.w	r0, r0, lr
        temp |= ((uint32_t)(GPIO_GET_INDEX(GPIOx)) << (4U * (position & 0x03U)));
 800189c:	f8df e0a8 	ldr.w	lr, [pc, #168]	@ 8001948 <HAL_GPIO_Init+0x258>
 80018a0:	4574      	cmp	r4, lr
 80018a2:	d04a      	beq.n	800193a <HAL_GPIO_Init+0x24a>
 80018a4:	4544      	cmp	r4, r8
 80018a6:	d04a      	beq.n	800193e <HAL_GPIO_Init+0x24e>
 80018a8:	f50e 6e00 	add.w	lr, lr, #2048	@ 0x800
 80018ac:	4574      	cmp	r4, lr
 80018ae:	d048      	beq.n	8001942 <HAL_GPIO_Init+0x252>
 80018b0:	f50e 6e80 	add.w	lr, lr, #1024	@ 0x400
 80018b4:	4574      	cmp	r4, lr
 80018b6:	d004      	beq.n	80018c2 <HAL_GPIO_Init+0x1d2>
 80018b8:	4b26      	ldr	r3, [pc, #152]	@ (8001954 <HAL_GPIO_Init+0x264>)
 80018ba:	429c      	cmp	r4, r3
 80018bc:	bf14      	ite	ne
 80018be:	2307      	movne	r3, #7
 80018c0:	2304      	moveq	r3, #4
 80018c2:	fa03 f30c 	lsl.w	r3, r3, ip
 80018c6:	4303      	orrs	r3, r0
        SYSCFG->EXTICR[position >> 2U] = temp;
 80018c8:	608b      	str	r3, [r1, #8]
        temp = EXTI->RTSR;
 80018ca:	f8d9 3008 	ldr.w	r3, [r9, #8]
        temp &= ~((uint32_t)iocurrent);
 80018ce:	ea6f 010a 	mvn.w	r1, sl
        if((GPIO_Init->Mode & TRIGGER_RISING) != 0x00U)
 80018d2:	02d0      	lsls	r0, r2, #11
        temp &= ~((uint32_t)iocurrent);
 80018d4:	bf54      	ite	pl
 80018d6:	400b      	andpl	r3, r1
        {
          temp |= iocurrent;
 80018d8:	ea4a 0303 	orrmi.w	r3, sl, r3
        }
        EXTI->RTSR = temp;
 80018dc:	f8c9 3008 	str.w	r3, [r9, #8]

        temp = EXTI->FTSR;
 80018e0:	f8d9 300c 	ldr.w	r3, [r9, #12]
        temp &= ~((uint32_t)iocurrent);
        if((GPIO_Init->Mode & TRIGGER_FALLING) != 0x00U)
 80018e4:	0290      	lsls	r0, r2, #10
        temp &= ~((uint32_t)iocurrent);
 80018e6:	bf54      	ite	pl
 80018e8:	400b      	andpl	r3, r1
        {
          temp |= iocurrent;
 80018ea:	ea4a 0303 	orrmi.w	r3, sl, r3
        }
        EXTI->FTSR = temp;
 80018ee:	f8c9 300c 	str.w	r3, [r9, #12]

        temp = EXTI->EMR;
 80018f2:	f8d9 3004 	ldr.w	r3, [r9, #4]
        temp &= ~((uint32_t)iocurrent);
        if((GPIO_Init->Mode & EXTI_EVT) != 0x00U)
 80018f6:	0390      	lsls	r0, r2, #14
        temp &= ~((uint32_t)iocurrent);
 80018f8:	bf54      	ite	pl
 80018fa:	400b      	andpl	r3, r1
        {
          temp |= iocurrent;
 80018fc:	ea4a 0303 	orrmi.w	r3, sl, r3
        }
        EXTI->EMR = temp;
 8001900:	f8c9 3004 	str.w	r3, [r9, #4]

        /* Clear EXTI line configuration */
        temp = EXTI->IMR;
 8001904:	f8d9 3000 	ldr.w	r3, [r9]
        temp &= ~((uint32_t)iocurrent);
        if((GPIO_Init->Mode & EXTI_IT) != 0x00U)
 8001908:	03d2      	lsls	r2, r2, #15
        temp &= ~((uint32_t)iocurrent);
 800190a:	bf54      	ite	pl
 800190c:	400b      	andpl	r3, r1
        {
          temp |= iocurrent;
 800190e:	ea4a 0303 	orrmi.w	r3, sl, r3
        }
        EXTI->IMR = temp;
 8001912:	f8c9 3000 	str.w	r3, [r9]
  for(position = 0U; position < GPIO_NUMBER; position++)
 8001916:	3601      	adds	r6, #1
 8001918:	2e10      	cmp	r6, #16
 800191a:	f107 0702 	add.w	r7, r7, #2
 800191e:	f47f af2d 	bne.w	800177c <HAL_GPIO_Init+0x8c>
      }
    }
  }
}
 8001922:	b003      	add	sp, #12
 8001924:	e8bd 8ff0 	ldmia.w	sp!, {r4, r5, r6, r7, r8, r9, sl, fp, pc}
 8001928:	f5b3 1f44 	cmp.w	r3, #3211264	@ 0x310000
 800192c:	f43f af20 	beq.w	8001770 <HAL_GPIO_Init+0x80>
 8001930:	f423 1380 	bic.w	r3, r3, #1048576	@ 0x100000
 8001934:	f5b3 1f08 	cmp.w	r3, #2228224	@ 0x220000
 8001938:	e719      	b.n	800176e <HAL_GPIO_Init+0x7e>
        temp |= ((uint32_t)(GPIO_GET_INDEX(GPIOx)) << (4U * (position & 0x03U)));
 800193a:	465b      	mov	r3, fp
 800193c:	e7c1      	b.n	80018c2 <HAL_GPIO_Init+0x1d2>
 800193e:	2301      	movs	r3, #1
 8001940:	e7bf      	b.n	80018c2 <HAL_GPIO_Init+0x1d2>
 8001942:	2302      	movs	r3, #2
 8001944:	e7bd      	b.n	80018c2 <HAL_GPIO_Init+0x1d2>
 8001946:	bf00      	nop
 8001948:	40020000 	.word	0x40020000
 800194c:	0800255a 	.word	0x0800255a
 8001950:	40023800 	.word	0x40023800
 8001954:	40021000 	.word	0x40021000
 8001958:	40013c00 	.word	0x40013c00
 800195c:	40020400 	.word	0x40020400

08001960 <HAL_GPIO_DeInit>:
  * @param  GPIO_Pin specifies the port bit to be written.
  *          This parameter can be one of GPIO_PIN_x where x can be (0..15).
  * @retval None
  */
void HAL_GPIO_DeInit(GPIO_TypeDef  *GPIOx, uint32_t GPIO_Pin)
{
 8001960:	e92d 4ff8 	stmdb	sp!, {r3, r4, r5, r6, r7, r8, r9, sl, fp, lr}
  uint32_t ioposition = 0x00U;
  uint32_t iocurrent = 0x00U;
  uint32_t tmp = 0x00U;

  /* Check the parameters */
  assert_param(IS_GPIO_ALL_INSTANCE(GPIOx));
 8001964:	4b49      	ldr	r3, [pc, #292]	@ (8001a8c <HAL_GPIO_DeInit+0x12c>)
 8001966:	4298      	cmp	r0, r3
{
 8001968:	4604      	mov	r4, r0
 800196a:	460e      	mov	r6, r1
  assert_param(IS_GPIO_ALL_INSTANCE(GPIOx));
 800196c:	d018      	beq.n	80019a0 <HAL_GPIO_DeInit+0x40>
 800196e:	f503 6380 	add.w	r3, r3, #1024	@ 0x400
 8001972:	4298      	cmp	r0, r3
 8001974:	d014      	beq.n	80019a0 <HAL_GPIO_DeInit+0x40>
 8001976:	f503 6380 	add.w	r3, r3, #1024	@ 0x400
 800197a:	4298      	cmp	r0, r3
 800197c:	d010      	beq.n	80019a0 <HAL_GPIO_DeInit+0x40>
 800197e:	f503 6380 	add.w	r3, r3, #1024	@ 0x400
 8001982:	4298      	cmp	r0, r3
 8001984:	d00c      	beq.n	80019a0 <HAL_GPIO_DeInit+0x40>
 8001986:	f503 6380 	add.w	r3, r3, #1024	@ 0x400
 800198a:	4298      	cmp	r0, r3
 800198c:	d008      	beq.n	80019a0 <HAL_GPIO_DeInit+0x40>
 800198e:	f503 6340 	add.w	r3, r3, #3072	@ 0xc00
 8001992:	4298      	cmp	r0, r3
 8001994:	d004      	beq.n	80019a0 <HAL_GPIO_DeInit+0x40>
 8001996:	483e      	ldr	r0, [pc, #248]	@ (8001a90 <HAL_GPIO_DeInit+0x130>)
 8001998:	f44f 7197 	mov.w	r1, #302	@ 0x12e
 800199c:	f7ff faa2 	bl	8000ee4 <assert_failed>
      tmp = SYSCFG->EXTICR[position >> 2U];
      tmp &= (0x0FU << (4U * (position & 0x03U)));
      if(tmp == ((uint32_t)(GPIO_GET_INDEX(GPIOx)) << (4U * (position & 0x03U))))
      {
        /* Clear EXTI line configuration */
        EXTI->IMR &= ~((uint32_t)iocurrent);
 80019a0:	4a3c      	ldr	r2, [pc, #240]	@ (8001a94 <HAL_GPIO_DeInit+0x134>)
{
 80019a2:	2300      	movs	r3, #0
    ioposition = 0x01U << position;
 80019a4:	f04f 0a01 	mov.w	sl, #1
      tmp &= (0x0FU << (4U * (position & 0x03U)));
 80019a8:	f04f 080f 	mov.w	r8, #15
        SYSCFG->EXTICR[position >> 2U] &= ~tmp;
      }

      /*------------------------- GPIO Mode Configuration --------------------*/
      /* Configure IO Direction in Input Floating Mode */
      GPIOx->MODER &= ~(GPIO_MODER_MODER0 << (position * 2U));
 80019ac:	f04f 0b03 	mov.w	fp, #3
    ioposition = 0x01U << position;
 80019b0:	fa0a fc03 	lsl.w	ip, sl, r3
    if(iocurrent == ioposition)
 80019b4:	ea3c 0006 	bics.w	r0, ip, r6
    iocurrent = (GPIO_Pin) & ioposition;
 80019b8:	ea0c 0106 	and.w	r1, ip, r6
    if(iocurrent == ioposition)
 80019bc:	d158      	bne.n	8001a70 <HAL_GPIO_DeInit+0x110>
      tmp = SYSCFG->EXTICR[position >> 2U];
 80019be:	f023 0003 	bic.w	r0, r3, #3
 80019c2:	f100 4080 	add.w	r0, r0, #1073741824	@ 0x40000000
 80019c6:	f500 309c 	add.w	r0, r0, #79872	@ 0x13800
      tmp &= (0x0FU << (4U * (position & 0x03U)));
 80019ca:	f003 0703 	and.w	r7, r3, #3
      tmp = SYSCFG->EXTICR[position >> 2U];
 80019ce:	6885      	ldr	r5, [r0, #8]
      tmp &= (0x0FU << (4U * (position & 0x03U)));
 80019d0:	00bf      	lsls	r7, r7, #2
 80019d2:	fa08 f907 	lsl.w	r9, r8, r7
 80019d6:	ea09 0e05 	and.w	lr, r9, r5
      if(tmp == ((uint32_t)(GPIO_GET_INDEX(GPIOx)) << (4U * (position & 0x03U))))
 80019da:	4d2c      	ldr	r5, [pc, #176]	@ (8001a8c <HAL_GPIO_DeInit+0x12c>)
 80019dc:	42ac      	cmp	r4, r5
 80019de:	d04c      	beq.n	8001a7a <HAL_GPIO_DeInit+0x11a>
 80019e0:	f505 6580 	add.w	r5, r5, #1024	@ 0x400
 80019e4:	42ac      	cmp	r4, r5
 80019e6:	d04a      	beq.n	8001a7e <HAL_GPIO_DeInit+0x11e>
 80019e8:	f505 6580 	add.w	r5, r5, #1024	@ 0x400
 80019ec:	42ac      	cmp	r4, r5
 80019ee:	d048      	beq.n	8001a82 <HAL_GPIO_DeInit+0x122>
 80019f0:	f505 6580 	add.w	r5, r5, #1024	@ 0x400
 80019f4:	42ac      	cmp	r4, r5
 80019f6:	d046      	beq.n	8001a86 <HAL_GPIO_DeInit+0x126>
 80019f8:	f505 6580 	add.w	r5, r5, #1024	@ 0x400
 80019fc:	42ac      	cmp	r4, r5
 80019fe:	bf14      	ite	ne
 8001a00:	2507      	movne	r5, #7
 8001a02:	2504      	moveq	r5, #4
 8001a04:	40bd      	lsls	r5, r7
 8001a06:	4575      	cmp	r5, lr
 8001a08:	d113      	bne.n	8001a32 <HAL_GPIO_DeInit+0xd2>
        EXTI->IMR &= ~((uint32_t)iocurrent);
 8001a0a:	6815      	ldr	r5, [r2, #0]
 8001a0c:	ea25 0501 	bic.w	r5, r5, r1
 8001a10:	6015      	str	r5, [r2, #0]
        EXTI->EMR &= ~((uint32_t)iocurrent);
 8001a12:	6855      	ldr	r5, [r2, #4]
 8001a14:	ea25 0501 	bic.w	r5, r5, r1
 8001a18:	6055      	str	r5, [r2, #4]
        EXTI->FTSR &= ~((uint32_t)iocurrent);
 8001a1a:	68d5      	ldr	r5, [r2, #12]
 8001a1c:	ea25 0501 	bic.w	r5, r5, r1
 8001a20:	60d5      	str	r5, [r2, #12]
        EXTI->RTSR &= ~((uint32_t)iocurrent);
 8001a22:	6895      	ldr	r5, [r2, #8]
 8001a24:	ea25 0501 	bic.w	r5, r5, r1
 8001a28:	6095      	str	r5, [r2, #8]
        SYSCFG->EXTICR[position >> 2U] &= ~tmp;
 8001a2a:	6881      	ldr	r1, [r0, #8]
 8001a2c:	ea21 0109 	bic.w	r1, r1, r9
 8001a30:	6081      	str	r1, [r0, #8]
      GPIOx->MODER &= ~(GPIO_MODER_MODER0 << (position * 2U));
 8001a32:	6820      	ldr	r0, [r4, #0]
 8001a34:	0059      	lsls	r1, r3, #1
 8001a36:	fa0b f101 	lsl.w	r1, fp, r1

      /* Configure the default Alternate Function in current IO */
      GPIOx->AFR[position >> 3U] &= ~(0xFU << ((uint32_t)(position & 0x07U) * 4U)) ;
 8001a3a:	08dd      	lsrs	r5, r3, #3
      GPIOx->MODER &= ~(GPIO_MODER_MODER0 << (position * 2U));
 8001a3c:	ea20 0001 	bic.w	r0, r0, r1
 8001a40:	eb04 0585 	add.w	r5, r4, r5, lsl #2
 8001a44:	6020      	str	r0, [r4, #0]
      GPIOx->AFR[position >> 3U] &= ~(0xFU << ((uint32_t)(position & 0x07U) * 4U)) ;
 8001a46:	f003 0007 	and.w	r0, r3, #7
 8001a4a:	6a2f      	ldr	r7, [r5, #32]
 8001a4c:	0080      	lsls	r0, r0, #2
 8001a4e:	fa08 f000 	lsl.w	r0, r8, r0
 8001a52:	ea27 0700 	bic.w	r7, r7, r0
 8001a56:	622f      	str	r7, [r5, #32]

      /* Deactivate the Pull-up and Pull-down resistor for the current IO */
      GPIOx->PUPDR &= ~(GPIO_PUPDR_PUPDR0 << (position * 2U));
 8001a58:	68e0      	ldr	r0, [r4, #12]
 8001a5a:	ea20 0001 	bic.w	r0, r0, r1
 8001a5e:	60e0      	str	r0, [r4, #12]

      /* Configure the default value IO Output Type */
      GPIOx->OTYPER  &= ~(GPIO_OTYPER_OT_0 << position) ;
 8001a60:	6860      	ldr	r0, [r4, #4]
 8001a62:	ea20 000c 	bic.w	r0, r0, ip
 8001a66:	6060      	str	r0, [r4, #4]

      /* Configure the default value for IO Speed */
      GPIOx->OSPEEDR &= ~(GPIO_OSPEEDER_OSPEEDR0 << (position * 2U));
 8001a68:	68a0      	ldr	r0, [r4, #8]
 8001a6a:	ea20 0101 	bic.w	r1, r0, r1
 8001a6e:	60a1      	str	r1, [r4, #8]
  for(position = 0U; position < GPIO_NUMBER; position++)
 8001a70:	3301      	adds	r3, #1
 8001a72:	2b10      	cmp	r3, #16
 8001a74:	d19c      	bne.n	80019b0 <HAL_GPIO_DeInit+0x50>
    }
  }
}
 8001a76:	e8bd 8ff8 	ldmia.w	sp!, {r3, r4, r5, r6, r7, r8, r9, sl, fp, pc}
      if(tmp == ((uint32_t)(GPIO_GET_INDEX(GPIOx)) << (4U * (position & 0x03U))))
 8001a7a:	2500      	movs	r5, #0
 8001a7c:	e7c2      	b.n	8001a04 <HAL_GPIO_DeInit+0xa4>
 8001a7e:	2501      	movs	r5, #1
 8001a80:	e7c0      	b.n	8001a04 <HAL_GPIO_DeInit+0xa4>
 8001a82:	2502      	movs	r5, #2
 8001a84:	e7be      	b.n	8001a04 <HAL_GPIO_DeInit+0xa4>
 8001a86:	2503      	movs	r5, #3
 8001a88:	e7bc      	b.n	8001a04 <HAL_GPIO_DeInit+0xa4>
 8001a8a:	bf00      	nop
 8001a8c:	40020000 	.word	0x40020000
 8001a90:	0800255a 	.word	0x0800255a
 8001a94:	40013c00 	.word	0x40013c00

08001a98 <HAL_RCC_OscConfig>:
  *         supported by this API. User should request a transition to HSE Off
  *         first and then HSE On or HSE Bypass.
  * @retval HAL status
  */
__weak HAL_StatusTypeDef HAL_RCC_OscConfig(const RCC_OscInitTypeDef  *RCC_OscInitStruct)
{
 8001a98:	e92d 41f3 	stmdb	sp!, {r0, r1, r4, r5, r6, r7, r8, lr}
  uint32_t tickstart;
  uint32_t pll_config;
  /* Check Null pointer */
  if (RCC_OscInitStruct == NULL)
 8001a9c:	4604      	mov	r4, r0
 8001a9e:	2800      	cmp	r0, #0
 8001aa0:	d042      	beq.n	8001b28 <HAL_RCC_OscConfig+0x90>
  {
    return HAL_ERROR;
  }

  /* Check the parameters */
  assert_param(IS_RCC_OSCILLATORTYPE(RCC_OscInitStruct->OscillatorType));
 8001aa2:	6803      	ldr	r3, [r0, #0]
 8001aa4:	2b0f      	cmp	r3, #15
 8001aa6:	d903      	bls.n	8001ab0 <HAL_RCC_OscConfig+0x18>
 8001aa8:	4899      	ldr	r0, [pc, #612]	@ (8001d10 <HAL_RCC_OscConfig+0x278>)
 8001aaa:	21e6      	movs	r1, #230	@ 0xe6
 8001aac:	f7ff fa1a 	bl	8000ee4 <assert_failed>
  /*------------------------------- HSE Configuration ------------------------*/
  if (((RCC_OscInitStruct->OscillatorType) & RCC_OSCILLATORTYPE_HSE) == RCC_OSCILLATORTYPE_HSE)
 8001ab0:	6823      	ldr	r3, [r4, #0]
 8001ab2:	07de      	lsls	r6, r3, #31
 8001ab4:	d418      	bmi.n	8001ae8 <HAL_RCC_OscConfig+0x50>
        }
      }
    }
  }
  /*----------------------------- HSI Configuration --------------------------*/
  if (((RCC_OscInitStruct->OscillatorType) & RCC_OSCILLATORTYPE_HSI) == RCC_OSCILLATORTYPE_HSI)
 8001ab6:	6823      	ldr	r3, [r4, #0]
 8001ab8:	079d      	lsls	r5, r3, #30
 8001aba:	d46e      	bmi.n	8001b9a <HAL_RCC_OscConfig+0x102>
        }
      }
    }
  }
  /*------------------------------ LSI Configuration -------------------------*/
  if (((RCC_OscInitStruct->OscillatorType) & RCC_OSCILLATORTYPE_LSI) == RCC_OSCILLATORTYPE_LSI)
 8001abc:	6823      	ldr	r3, [r4, #0]
 8001abe:	0719      	lsls	r1, r3, #28
 8001ac0:	f100 80c0 	bmi.w	8001c44 <HAL_RCC_OscConfig+0x1ac>
        }
      }
    }
  }
  /*------------------------------ LSE Configuration -------------------------*/
  if (((RCC_OscInitStruct->OscillatorType) & RCC_OSCILLATORTYPE_LSE) == RCC_OSCILLATORTYPE_LSE)
 8001ac4:	6823      	ldr	r3, [r4, #0]
 8001ac6:	075a      	lsls	r2, r3, #29
 8001ac8:	f100 80e8 	bmi.w	8001c9c <HAL_RCC_OscConfig+0x204>
      __HAL_RCC_PWR_CLK_DISABLE();
    }
  }
  /*-------------------------------- PLL Configuration -----------------------*/
  /* Check the parameters */
  assert_param(IS_RCC_PLL(RCC_OscInitStruct->PLL.PLLState));
 8001acc:	69a3      	ldr	r3, [r4, #24]
 8001ace:	2b02      	cmp	r3, #2
 8001ad0:	d904      	bls.n	8001adc <HAL_RCC_OscConfig+0x44>
 8001ad2:	488f      	ldr	r0, [pc, #572]	@ (8001d10 <HAL_RCC_OscConfig+0x278>)
 8001ad4:	f240 11cd 	movw	r1, #461	@ 0x1cd
 8001ad8:	f7ff fa04 	bl	8000ee4 <assert_failed>
  if ((RCC_OscInitStruct->PLL.PLLState) != RCC_PLL_NONE)
 8001adc:	69a3      	ldr	r3, [r4, #24]
 8001ade:	2b00      	cmp	r3, #0
 8001ae0:	f040 8153 	bne.w	8001d8a <HAL_RCC_OscConfig+0x2f2>
          return HAL_ERROR;
        }
      }
    }
  }
  return HAL_OK;
 8001ae4:	2000      	movs	r0, #0
 8001ae6:	e037      	b.n	8001b58 <HAL_RCC_OscConfig+0xc0>
    assert_param(IS_RCC_HSE(RCC_OscInitStruct->HSEState));
 8001ae8:	6863      	ldr	r3, [r4, #4]
 8001aea:	f433 3280 	bics.w	r2, r3, #65536	@ 0x10000
 8001aee:	d006      	beq.n	8001afe <HAL_RCC_OscConfig+0x66>
 8001af0:	f5b3 2fa0 	cmp.w	r3, #327680	@ 0x50000
 8001af4:	d003      	beq.n	8001afe <HAL_RCC_OscConfig+0x66>
 8001af6:	4886      	ldr	r0, [pc, #536]	@ (8001d10 <HAL_RCC_OscConfig+0x278>)
 8001af8:	21eb      	movs	r1, #235	@ 0xeb
 8001afa:	f7ff f9f3 	bl	8000ee4 <assert_failed>
    if ((__HAL_RCC_GET_SYSCLK_SOURCE() == RCC_CFGR_SWS_HSE) || \
 8001afe:	4b85      	ldr	r3, [pc, #532]	@ (8001d14 <HAL_RCC_OscConfig+0x27c>)
 8001b00:	689a      	ldr	r2, [r3, #8]
 8001b02:	f002 020c 	and.w	r2, r2, #12
 8001b06:	2a04      	cmp	r2, #4
 8001b08:	d007      	beq.n	8001b1a <HAL_RCC_OscConfig+0x82>
        ((__HAL_RCC_GET_SYSCLK_SOURCE() == RCC_CFGR_SWS_PLL) && ((RCC->PLLCFGR & RCC_PLLCFGR_PLLSRC) == RCC_PLLCFGR_PLLSRC_HSE)))
 8001b0a:	689a      	ldr	r2, [r3, #8]
 8001b0c:	f002 020c 	and.w	r2, r2, #12
    if ((__HAL_RCC_GET_SYSCLK_SOURCE() == RCC_CFGR_SWS_HSE) || \
 8001b10:	2a08      	cmp	r2, #8
 8001b12:	d10b      	bne.n	8001b2c <HAL_RCC_OscConfig+0x94>
        ((__HAL_RCC_GET_SYSCLK_SOURCE() == RCC_CFGR_SWS_PLL) && ((RCC->PLLCFGR & RCC_PLLCFGR_PLLSRC) == RCC_PLLCFGR_PLLSRC_HSE)))
 8001b14:	685b      	ldr	r3, [r3, #4]
 8001b16:	0259      	lsls	r1, r3, #9
 8001b18:	d508      	bpl.n	8001b2c <HAL_RCC_OscConfig+0x94>
      if ((__HAL_RCC_GET_FLAG(RCC_FLAG_HSERDY) != RESET) && (RCC_OscInitStruct->HSEState == RCC_HSE_OFF))
 8001b1a:	4b7e      	ldr	r3, [pc, #504]	@ (8001d14 <HAL_RCC_OscConfig+0x27c>)
 8001b1c:	681b      	ldr	r3, [r3, #0]
 8001b1e:	039a      	lsls	r2, r3, #14
 8001b20:	d5c9      	bpl.n	8001ab6 <HAL_RCC_OscConfig+0x1e>
 8001b22:	6863      	ldr	r3, [r4, #4]
 8001b24:	2b00      	cmp	r3, #0
 8001b26:	d1c6      	bne.n	8001ab6 <HAL_RCC_OscConfig+0x1e>
    return HAL_ERROR;
 8001b28:	2001      	movs	r0, #1
 8001b2a:	e015      	b.n	8001b58 <HAL_RCC_OscConfig+0xc0>
      __HAL_RCC_HSE_CONFIG(RCC_OscInitStruct->HSEState);
 8001b2c:	6863      	ldr	r3, [r4, #4]
 8001b2e:	4d79      	ldr	r5, [pc, #484]	@ (8001d14 <HAL_RCC_OscConfig+0x27c>)
 8001b30:	f5b3 3f80 	cmp.w	r3, #65536	@ 0x10000
 8001b34:	d113      	bne.n	8001b5e <HAL_RCC_OscConfig+0xc6>
 8001b36:	682b      	ldr	r3, [r5, #0]
 8001b38:	f443 3380 	orr.w	r3, r3, #65536	@ 0x10000
 8001b3c:	602b      	str	r3, [r5, #0]
        tickstart = HAL_GetTick();
 8001b3e:	f7ff faf1 	bl	8001124 <HAL_GetTick>
        while (__HAL_RCC_GET_FLAG(RCC_FLAG_HSERDY) == RESET)
 8001b42:	4e74      	ldr	r6, [pc, #464]	@ (8001d14 <HAL_RCC_OscConfig+0x27c>)
        tickstart = HAL_GetTick();
 8001b44:	4605      	mov	r5, r0
        while (__HAL_RCC_GET_FLAG(RCC_FLAG_HSERDY) == RESET)
 8001b46:	6833      	ldr	r3, [r6, #0]
 8001b48:	039b      	lsls	r3, r3, #14
 8001b4a:	d4b4      	bmi.n	8001ab6 <HAL_RCC_OscConfig+0x1e>
          if ((HAL_GetTick() - tickstart) > HSE_TIMEOUT_VALUE)
 8001b4c:	f7ff faea 	bl	8001124 <HAL_GetTick>
 8001b50:	1b40      	subs	r0, r0, r5
 8001b52:	2864      	cmp	r0, #100	@ 0x64
 8001b54:	d9f7      	bls.n	8001b46 <HAL_RCC_OscConfig+0xae>
            return HAL_TIMEOUT;
 8001b56:	2003      	movs	r0, #3
}
 8001b58:	b002      	add	sp, #8
 8001b5a:	e8bd 81f0 	ldmia.w	sp!, {r4, r5, r6, r7, r8, pc}
      __HAL_RCC_HSE_CONFIG(RCC_OscInitStruct->HSEState);
 8001b5e:	f5b3 2fa0 	cmp.w	r3, #327680	@ 0x50000
 8001b62:	d104      	bne.n	8001b6e <HAL_RCC_OscConfig+0xd6>
 8001b64:	682b      	ldr	r3, [r5, #0]
 8001b66:	f443 2380 	orr.w	r3, r3, #262144	@ 0x40000
 8001b6a:	602b      	str	r3, [r5, #0]
 8001b6c:	e7e3      	b.n	8001b36 <HAL_RCC_OscConfig+0x9e>
 8001b6e:	682a      	ldr	r2, [r5, #0]
 8001b70:	f422 3280 	bic.w	r2, r2, #65536	@ 0x10000
 8001b74:	602a      	str	r2, [r5, #0]
 8001b76:	682a      	ldr	r2, [r5, #0]
 8001b78:	f422 2280 	bic.w	r2, r2, #262144	@ 0x40000
 8001b7c:	602a      	str	r2, [r5, #0]
      if ((RCC_OscInitStruct->HSEState) != RCC_HSE_OFF)
 8001b7e:	2b00      	cmp	r3, #0
 8001b80:	d1dd      	bne.n	8001b3e <HAL_RCC_OscConfig+0xa6>
        tickstart = HAL_GetTick();
 8001b82:	f7ff facf 	bl	8001124 <HAL_GetTick>
 8001b86:	4606      	mov	r6, r0
        while (__HAL_RCC_GET_FLAG(RCC_FLAG_HSERDY) != RESET)
 8001b88:	682b      	ldr	r3, [r5, #0]
 8001b8a:	039f      	lsls	r7, r3, #14
 8001b8c:	d593      	bpl.n	8001ab6 <HAL_RCC_OscConfig+0x1e>
          if ((HAL_GetTick() - tickstart) > HSE_TIMEOUT_VALUE)
 8001b8e:	f7ff fac9 	bl	8001124 <HAL_GetTick>
 8001b92:	1b80      	subs	r0, r0, r6
 8001b94:	2864      	cmp	r0, #100	@ 0x64
 8001b96:	d9f7      	bls.n	8001b88 <HAL_RCC_OscConfig+0xf0>
 8001b98:	e7dd      	b.n	8001b56 <HAL_RCC_OscConfig+0xbe>
    assert_param(IS_RCC_HSI(RCC_OscInitStruct->HSIState));
 8001b9a:	68e3      	ldr	r3, [r4, #12]
 8001b9c:	2b01      	cmp	r3, #1
 8001b9e:	d904      	bls.n	8001baa <HAL_RCC_OscConfig+0x112>
 8001ba0:	485b      	ldr	r0, [pc, #364]	@ (8001d10 <HAL_RCC_OscConfig+0x278>)
 8001ba2:	f240 111d 	movw	r1, #285	@ 0x11d
 8001ba6:	f7ff f99d 	bl	8000ee4 <assert_failed>
    assert_param(IS_RCC_CALIBRATION_VALUE(RCC_OscInitStruct->HSICalibrationValue));
 8001baa:	6923      	ldr	r3, [r4, #16]
 8001bac:	2b1f      	cmp	r3, #31
 8001bae:	d904      	bls.n	8001bba <HAL_RCC_OscConfig+0x122>
 8001bb0:	4857      	ldr	r0, [pc, #348]	@ (8001d10 <HAL_RCC_OscConfig+0x278>)
 8001bb2:	f44f 718f 	mov.w	r1, #286	@ 0x11e
 8001bb6:	f7ff f995 	bl	8000ee4 <assert_failed>
    if ((__HAL_RCC_GET_SYSCLK_SOURCE() == RCC_CFGR_SWS_HSI) || \
 8001bba:	4b56      	ldr	r3, [pc, #344]	@ (8001d14 <HAL_RCC_OscConfig+0x27c>)
 8001bbc:	689a      	ldr	r2, [r3, #8]
 8001bbe:	f012 0f0c 	tst.w	r2, #12
 8001bc2:	d007      	beq.n	8001bd4 <HAL_RCC_OscConfig+0x13c>
        ((__HAL_RCC_GET_SYSCLK_SOURCE() == RCC_CFGR_SWS_PLL) && ((RCC->PLLCFGR & RCC_PLLCFGR_PLLSRC) == RCC_PLLCFGR_PLLSRC_HSI)))
 8001bc4:	689a      	ldr	r2, [r3, #8]
 8001bc6:	f002 020c 	and.w	r2, r2, #12
    if ((__HAL_RCC_GET_SYSCLK_SOURCE() == RCC_CFGR_SWS_HSI) || \
 8001bca:	2a08      	cmp	r2, #8
 8001bcc:	d111      	bne.n	8001bf2 <HAL_RCC_OscConfig+0x15a>
        ((__HAL_RCC_GET_SYSCLK_SOURCE() == RCC_CFGR_SWS_PLL) && ((RCC->PLLCFGR & RCC_PLLCFGR_PLLSRC) == RCC_PLLCFGR_PLLSRC_HSI)))
 8001bce:	685b      	ldr	r3, [r3, #4]
 8001bd0:	025d      	lsls	r5, r3, #9
 8001bd2:	d40e      	bmi.n	8001bf2 <HAL_RCC_OscConfig+0x15a>
      if ((__HAL_RCC_GET_FLAG(RCC_FLAG_HSIRDY) != RESET) && (RCC_OscInitStruct->HSIState != RCC_HSI_ON))
 8001bd4:	4a4f      	ldr	r2, [pc, #316]	@ (8001d14 <HAL_RCC_OscConfig+0x27c>)
 8001bd6:	6813      	ldr	r3, [r2, #0]
 8001bd8:	0799      	lsls	r1, r3, #30
 8001bda:	d502      	bpl.n	8001be2 <HAL_RCC_OscConfig+0x14a>
 8001bdc:	68e3      	ldr	r3, [r4, #12]
 8001bde:	2b01      	cmp	r3, #1
 8001be0:	d1a2      	bne.n	8001b28 <HAL_RCC_OscConfig+0x90>
        __HAL_RCC_HSI_CALIBRATIONVALUE_ADJUST(RCC_OscInitStruct->HSICalibrationValue);
 8001be2:	6813      	ldr	r3, [r2, #0]
 8001be4:	6921      	ldr	r1, [r4, #16]
 8001be6:	f023 03f8 	bic.w	r3, r3, #248	@ 0xf8
 8001bea:	ea43 03c1 	orr.w	r3, r3, r1, lsl #3
 8001bee:	6013      	str	r3, [r2, #0]
      if ((__HAL_RCC_GET_FLAG(RCC_FLAG_HSIRDY) != RESET) && (RCC_OscInitStruct->HSIState != RCC_HSI_ON))
 8001bf0:	e764      	b.n	8001abc <HAL_RCC_OscConfig+0x24>
      if ((RCC_OscInitStruct->HSIState) != RCC_HSI_OFF)
 8001bf2:	68e2      	ldr	r2, [r4, #12]
 8001bf4:	4b48      	ldr	r3, [pc, #288]	@ (8001d18 <HAL_RCC_OscConfig+0x280>)
 8001bf6:	b1b2      	cbz	r2, 8001c26 <HAL_RCC_OscConfig+0x18e>
        __HAL_RCC_HSI_ENABLE();
 8001bf8:	2201      	movs	r2, #1
 8001bfa:	601a      	str	r2, [r3, #0]
        tickstart = HAL_GetTick();
 8001bfc:	f7ff fa92 	bl	8001124 <HAL_GetTick>
        while (__HAL_RCC_GET_FLAG(RCC_FLAG_HSIRDY) == RESET)
 8001c00:	4d44      	ldr	r5, [pc, #272]	@ (8001d14 <HAL_RCC_OscConfig+0x27c>)
        tickstart = HAL_GetTick();
 8001c02:	4606      	mov	r6, r0
        while (__HAL_RCC_GET_FLAG(RCC_FLAG_HSIRDY) == RESET)
 8001c04:	682b      	ldr	r3, [r5, #0]
 8001c06:	079b      	lsls	r3, r3, #30
 8001c08:	d507      	bpl.n	8001c1a <HAL_RCC_OscConfig+0x182>
        __HAL_RCC_HSI_CALIBRATIONVALUE_ADJUST(RCC_OscInitStruct->HSICalibrationValue);
 8001c0a:	682b      	ldr	r3, [r5, #0]
 8001c0c:	6922      	ldr	r2, [r4, #16]
 8001c0e:	f023 03f8 	bic.w	r3, r3, #248	@ 0xf8
 8001c12:	ea43 03c2 	orr.w	r3, r3, r2, lsl #3
 8001c16:	602b      	str	r3, [r5, #0]
 8001c18:	e750      	b.n	8001abc <HAL_RCC_OscConfig+0x24>
          if ((HAL_GetTick() - tickstart) > HSI_TIMEOUT_VALUE)
 8001c1a:	f7ff fa83 	bl	8001124 <HAL_GetTick>
 8001c1e:	1b80      	subs	r0, r0, r6
 8001c20:	2802      	cmp	r0, #2
 8001c22:	d9ef      	bls.n	8001c04 <HAL_RCC_OscConfig+0x16c>
 8001c24:	e797      	b.n	8001b56 <HAL_RCC_OscConfig+0xbe>
        __HAL_RCC_HSI_DISABLE();
 8001c26:	601a      	str	r2, [r3, #0]
        tickstart = HAL_GetTick();
 8001c28:	f7ff fa7c 	bl	8001124 <HAL_GetTick>
        while (__HAL_RCC_GET_FLAG(RCC_FLAG_HSIRDY) != RESET)
 8001c2c:	4e39      	ldr	r6, [pc, #228]	@ (8001d14 <HAL_RCC_OscConfig+0x27c>)
        tickstart = HAL_GetTick();
 8001c2e:	4605      	mov	r5, r0
        while (__HAL_RCC_GET_FLAG(RCC_FLAG_HSIRDY) != RESET)
 8001c30:	6833      	ldr	r3, [r6, #0]
 8001c32:	079f      	lsls	r7, r3, #30
 8001c34:	f57f af42 	bpl.w	8001abc <HAL_RCC_OscConfig+0x24>
          if ((HAL_GetTick() - tickstart) > HSI_TIMEOUT_VALUE)
 8001c38:	f7ff fa74 	bl	8001124 <HAL_GetTick>
 8001c3c:	1b40      	subs	r0, r0, r5
 8001c3e:	2802      	cmp	r0, #2
 8001c40:	d9f6      	bls.n	8001c30 <HAL_RCC_OscConfig+0x198>
 8001c42:	e788      	b.n	8001b56 <HAL_RCC_OscConfig+0xbe>
    assert_param(IS_RCC_LSI(RCC_OscInitStruct->LSIState));
 8001c44:	6963      	ldr	r3, [r4, #20]
 8001c46:	2b01      	cmp	r3, #1
 8001c48:	d904      	bls.n	8001c54 <HAL_RCC_OscConfig+0x1bc>
 8001c4a:	4831      	ldr	r0, [pc, #196]	@ (8001d10 <HAL_RCC_OscConfig+0x278>)
 8001c4c:	f44f 71af 	mov.w	r1, #350	@ 0x15e
 8001c50:	f7ff f948 	bl	8000ee4 <assert_failed>
    if ((RCC_OscInitStruct->LSIState) != RCC_LSI_OFF)
 8001c54:	6962      	ldr	r2, [r4, #20]
 8001c56:	4b30      	ldr	r3, [pc, #192]	@ (8001d18 <HAL_RCC_OscConfig+0x280>)
 8001c58:	b182      	cbz	r2, 8001c7c <HAL_RCC_OscConfig+0x1e4>
      __HAL_RCC_LSI_ENABLE();
 8001c5a:	2201      	movs	r2, #1
 8001c5c:	f8c3 2e80 	str.w	r2, [r3, #3712]	@ 0xe80
      tickstart = HAL_GetTick();
 8001c60:	f7ff fa60 	bl	8001124 <HAL_GetTick>
      while (__HAL_RCC_GET_FLAG(RCC_FLAG_LSIRDY) == RESET)
 8001c64:	4e2b      	ldr	r6, [pc, #172]	@ (8001d14 <HAL_RCC_OscConfig+0x27c>)
      tickstart = HAL_GetTick();
 8001c66:	4605      	mov	r5, r0
      while (__HAL_RCC_GET_FLAG(RCC_FLAG_LSIRDY) == RESET)
 8001c68:	6f73      	ldr	r3, [r6, #116]	@ 0x74
 8001c6a:	079b      	lsls	r3, r3, #30
 8001c6c:	f53f af2a 	bmi.w	8001ac4 <HAL_RCC_OscConfig+0x2c>
        if ((HAL_GetTick() - tickstart) > LSI_TIMEOUT_VALUE)
 8001c70:	f7ff fa58 	bl	8001124 <HAL_GetTick>
 8001c74:	1b40      	subs	r0, r0, r5
 8001c76:	2802      	cmp	r0, #2
 8001c78:	d9f6      	bls.n	8001c68 <HAL_RCC_OscConfig+0x1d0>
 8001c7a:	e76c      	b.n	8001b56 <HAL_RCC_OscConfig+0xbe>
      __HAL_RCC_LSI_DISABLE();
 8001c7c:	f8c3 2e80 	str.w	r2, [r3, #3712]	@ 0xe80
      tickstart = HAL_GetTick();
 8001c80:	f7ff fa50 	bl	8001124 <HAL_GetTick>
      while (__HAL_RCC_GET_FLAG(RCC_FLAG_LSIRDY) != RESET)
 8001c84:	4e23      	ldr	r6, [pc, #140]	@ (8001d14 <HAL_RCC_OscConfig+0x27c>)
      tickstart = HAL_GetTick();
 8001c86:	4605      	mov	r5, r0
      while (__HAL_RCC_GET_FLAG(RCC_FLAG_LSIRDY) != RESET)
 8001c88:	6f73      	ldr	r3, [r6, #116]	@ 0x74
 8001c8a:	079f      	lsls	r7, r3, #30
 8001c8c:	f57f af1a 	bpl.w	8001ac4 <HAL_RCC_OscConfig+0x2c>
        if ((HAL_GetTick() - tickstart) > LSI_TIMEOUT_VALUE)
 8001c90:	f7ff fa48 	bl	8001124 <HAL_GetTick>
 8001c94:	1b40      	subs	r0, r0, r5
 8001c96:	2802      	cmp	r0, #2
 8001c98:	d9f6      	bls.n	8001c88 <HAL_RCC_OscConfig+0x1f0>
 8001c9a:	e75c      	b.n	8001b56 <HAL_RCC_OscConfig+0xbe>
    assert_param(IS_RCC_LSE(RCC_OscInitStruct->LSEState));
 8001c9c:	68a3      	ldr	r3, [r4, #8]
 8001c9e:	2b01      	cmp	r3, #1
 8001ca0:	d906      	bls.n	8001cb0 <HAL_RCC_OscConfig+0x218>
 8001ca2:	2b05      	cmp	r3, #5
 8001ca4:	d004      	beq.n	8001cb0 <HAL_RCC_OscConfig+0x218>
 8001ca6:	481a      	ldr	r0, [pc, #104]	@ (8001d10 <HAL_RCC_OscConfig+0x278>)
 8001ca8:	f44f 71c5 	mov.w	r1, #394	@ 0x18a
 8001cac:	f7ff f91a 	bl	8000ee4 <assert_failed>
    if (__HAL_RCC_PWR_IS_CLK_DISABLED())
 8001cb0:	4b18      	ldr	r3, [pc, #96]	@ (8001d14 <HAL_RCC_OscConfig+0x27c>)
 8001cb2:	6c1a      	ldr	r2, [r3, #64]	@ 0x40
 8001cb4:	f012 5280 	ands.w	r2, r2, #268435456	@ 0x10000000
 8001cb8:	d128      	bne.n	8001d0c <HAL_RCC_OscConfig+0x274>
      __HAL_RCC_PWR_CLK_ENABLE();
 8001cba:	9201      	str	r2, [sp, #4]
 8001cbc:	6c1a      	ldr	r2, [r3, #64]	@ 0x40
 8001cbe:	f042 5280 	orr.w	r2, r2, #268435456	@ 0x10000000
 8001cc2:	641a      	str	r2, [r3, #64]	@ 0x40
 8001cc4:	6c1b      	ldr	r3, [r3, #64]	@ 0x40
 8001cc6:	f003 5380 	and.w	r3, r3, #268435456	@ 0x10000000
 8001cca:	9301      	str	r3, [sp, #4]
 8001ccc:	9b01      	ldr	r3, [sp, #4]
      pwrclkchanged = SET;
 8001cce:	2701      	movs	r7, #1
    if (HAL_IS_BIT_CLR(PWR->CR, PWR_CR_DBP))
 8001cd0:	4d12      	ldr	r5, [pc, #72]	@ (8001d1c <HAL_RCC_OscConfig+0x284>)
 8001cd2:	682b      	ldr	r3, [r5, #0]
 8001cd4:	05d8      	lsls	r0, r3, #23
 8001cd6:	d523      	bpl.n	8001d20 <HAL_RCC_OscConfig+0x288>
    __HAL_RCC_LSE_CONFIG(RCC_OscInitStruct->LSEState);
 8001cd8:	68a3      	ldr	r3, [r4, #8]
 8001cda:	4d0e      	ldr	r5, [pc, #56]	@ (8001d14 <HAL_RCC_OscConfig+0x27c>)
 8001cdc:	2b01      	cmp	r3, #1
 8001cde:	d12f      	bne.n	8001d40 <HAL_RCC_OscConfig+0x2a8>
 8001ce0:	6f2b      	ldr	r3, [r5, #112]	@ 0x70
 8001ce2:	f043 0301 	orr.w	r3, r3, #1
 8001ce6:	672b      	str	r3, [r5, #112]	@ 0x70
      tickstart = HAL_GetTick();
 8001ce8:	f7ff fa1c 	bl	8001124 <HAL_GetTick>
      while (__HAL_RCC_GET_FLAG(RCC_FLAG_LSERDY) == RESET)
 8001cec:	4e09      	ldr	r6, [pc, #36]	@ (8001d14 <HAL_RCC_OscConfig+0x27c>)
      tickstart = HAL_GetTick();
 8001cee:	4605      	mov	r5, r0
        if ((HAL_GetTick() - tickstart) > RCC_LSE_TIMEOUT_VALUE)
 8001cf0:	f241 3888 	movw	r8, #5000	@ 0x1388
      while (__HAL_RCC_GET_FLAG(RCC_FLAG_LSERDY) == RESET)
 8001cf4:	6f33      	ldr	r3, [r6, #112]	@ 0x70
 8001cf6:	079a      	lsls	r2, r3, #30
 8001cf8:	d541      	bpl.n	8001d7e <HAL_RCC_OscConfig+0x2e6>
    if (pwrclkchanged == SET)
 8001cfa:	2f00      	cmp	r7, #0
 8001cfc:	f43f aee6 	beq.w	8001acc <HAL_RCC_OscConfig+0x34>
      __HAL_RCC_PWR_CLK_DISABLE();
 8001d00:	4a04      	ldr	r2, [pc, #16]	@ (8001d14 <HAL_RCC_OscConfig+0x27c>)
 8001d02:	6c13      	ldr	r3, [r2, #64]	@ 0x40
 8001d04:	f023 5380 	bic.w	r3, r3, #268435456	@ 0x10000000
 8001d08:	6413      	str	r3, [r2, #64]	@ 0x40
 8001d0a:	e6df      	b.n	8001acc <HAL_RCC_OscConfig+0x34>
    FlagStatus       pwrclkchanged = RESET;
 8001d0c:	2700      	movs	r7, #0
 8001d0e:	e7df      	b.n	8001cd0 <HAL_RCC_OscConfig+0x238>
 8001d10:	08002593 	.word	0x08002593
 8001d14:	40023800 	.word	0x40023800
 8001d18:	42470000 	.word	0x42470000
 8001d1c:	40007000 	.word	0x40007000
      SET_BIT(PWR->CR, PWR_CR_DBP);
 8001d20:	682b      	ldr	r3, [r5, #0]
 8001d22:	f443 7380 	orr.w	r3, r3, #256	@ 0x100
 8001d26:	602b      	str	r3, [r5, #0]
      tickstart = HAL_GetTick();
 8001d28:	f7ff f9fc 	bl	8001124 <HAL_GetTick>
 8001d2c:	4606      	mov	r6, r0
      while (HAL_IS_BIT_CLR(PWR->CR, PWR_CR_DBP))
 8001d2e:	682b      	ldr	r3, [r5, #0]
 8001d30:	05d9      	lsls	r1, r3, #23
 8001d32:	d4d1      	bmi.n	8001cd8 <HAL_RCC_OscConfig+0x240>
        if ((HAL_GetTick() - tickstart) > RCC_DBP_TIMEOUT_VALUE)
 8001d34:	f7ff f9f6 	bl	8001124 <HAL_GetTick>
 8001d38:	1b80      	subs	r0, r0, r6
 8001d3a:	2802      	cmp	r0, #2
 8001d3c:	d9f7      	bls.n	8001d2e <HAL_RCC_OscConfig+0x296>
 8001d3e:	e70a      	b.n	8001b56 <HAL_RCC_OscConfig+0xbe>
    __HAL_RCC_LSE_CONFIG(RCC_OscInitStruct->LSEState);
 8001d40:	2b05      	cmp	r3, #5
 8001d42:	d104      	bne.n	8001d4e <HAL_RCC_OscConfig+0x2b6>
 8001d44:	6f2b      	ldr	r3, [r5, #112]	@ 0x70
 8001d46:	f043 0304 	orr.w	r3, r3, #4
 8001d4a:	672b      	str	r3, [r5, #112]	@ 0x70
 8001d4c:	e7c8      	b.n	8001ce0 <HAL_RCC_OscConfig+0x248>
 8001d4e:	6f2a      	ldr	r2, [r5, #112]	@ 0x70
 8001d50:	f022 0201 	bic.w	r2, r2, #1
 8001d54:	672a      	str	r2, [r5, #112]	@ 0x70
 8001d56:	6f2a      	ldr	r2, [r5, #112]	@ 0x70
 8001d58:	f022 0204 	bic.w	r2, r2, #4
 8001d5c:	672a      	str	r2, [r5, #112]	@ 0x70
    if ((RCC_OscInitStruct->LSEState) != RCC_LSE_OFF)
 8001d5e:	2b00      	cmp	r3, #0
 8001d60:	d1c2      	bne.n	8001ce8 <HAL_RCC_OscConfig+0x250>
      tickstart = HAL_GetTick();
 8001d62:	f7ff f9df 	bl	8001124 <HAL_GetTick>
        if ((HAL_GetTick() - tickstart) > RCC_LSE_TIMEOUT_VALUE)
 8001d66:	f241 3888 	movw	r8, #5000	@ 0x1388
      tickstart = HAL_GetTick();
 8001d6a:	4606      	mov	r6, r0
      while (__HAL_RCC_GET_FLAG(RCC_FLAG_LSERDY) != RESET)
 8001d6c:	6f2b      	ldr	r3, [r5, #112]	@ 0x70
 8001d6e:	079b      	lsls	r3, r3, #30
 8001d70:	d5c3      	bpl.n	8001cfa <HAL_RCC_OscConfig+0x262>
        if ((HAL_GetTick() - tickstart) > RCC_LSE_TIMEOUT_VALUE)
 8001d72:	f7ff f9d7 	bl	8001124 <HAL_GetTick>
 8001d76:	1b80      	subs	r0, r0, r6
 8001d78:	4540      	cmp	r0, r8
 8001d7a:	d9f7      	bls.n	8001d6c <HAL_RCC_OscConfig+0x2d4>
 8001d7c:	e6eb      	b.n	8001b56 <HAL_RCC_OscConfig+0xbe>
        if ((HAL_GetTick() - tickstart) > RCC_LSE_TIMEOUT_VALUE)
 8001d7e:	f7ff f9d1 	bl	8001124 <HAL_GetTick>
 8001d82:	1b40      	subs	r0, r0, r5
 8001d84:	4540      	cmp	r0, r8
 8001d86:	d9b5      	bls.n	8001cf4 <HAL_RCC_OscConfig+0x25c>
 8001d88:	e6e5      	b.n	8001b56 <HAL_RCC_OscConfig+0xbe>
    if (__HAL_RCC_GET_SYSCLK_SOURCE() != RCC_CFGR_SWS_PLL)
 8001d8a:	4d52      	ldr	r5, [pc, #328]	@ (8001ed4 <HAL_RCC_OscConfig+0x43c>)
 8001d8c:	68aa      	ldr	r2, [r5, #8]
 8001d8e:	f002 020c 	and.w	r2, r2, #12
 8001d92:	2a08      	cmp	r2, #8
 8001d94:	d073      	beq.n	8001e7e <HAL_RCC_OscConfig+0x3e6>
      if ((RCC_OscInitStruct->PLL.PLLState) == RCC_PLL_ON)
 8001d96:	2b02      	cmp	r3, #2
 8001d98:	d161      	bne.n	8001e5e <HAL_RCC_OscConfig+0x3c6>
        assert_param(IS_RCC_PLLSOURCE(RCC_OscInitStruct->PLL.PLLSource));
 8001d9a:	69e3      	ldr	r3, [r4, #28]
 8001d9c:	f433 0380 	bics.w	r3, r3, #4194304	@ 0x400000
 8001da0:	d004      	beq.n	8001dac <HAL_RCC_OscConfig+0x314>
 8001da2:	484d      	ldr	r0, [pc, #308]	@ (8001ed8 <HAL_RCC_OscConfig+0x440>)
 8001da4:	f44f 71eb 	mov.w	r1, #470	@ 0x1d6
 8001da8:	f7ff f89c 	bl	8000ee4 <assert_failed>
        assert_param(IS_RCC_PLLM_VALUE(RCC_OscInitStruct->PLL.PLLM));
 8001dac:	6a23      	ldr	r3, [r4, #32]
 8001dae:	3b02      	subs	r3, #2
 8001db0:	2b3d      	cmp	r3, #61	@ 0x3d
 8001db2:	d904      	bls.n	8001dbe <HAL_RCC_OscConfig+0x326>
 8001db4:	4848      	ldr	r0, [pc, #288]	@ (8001ed8 <HAL_RCC_OscConfig+0x440>)
 8001db6:	f240 11d7 	movw	r1, #471	@ 0x1d7
 8001dba:	f7ff f893 	bl	8000ee4 <assert_failed>
        assert_param(IS_RCC_PLLN_VALUE(RCC_OscInitStruct->PLL.PLLN));
 8001dbe:	6a63      	ldr	r3, [r4, #36]	@ 0x24
 8001dc0:	3b32      	subs	r3, #50	@ 0x32
 8001dc2:	f5b3 7fbf 	cmp.w	r3, #382	@ 0x17e
 8001dc6:	d904      	bls.n	8001dd2 <HAL_RCC_OscConfig+0x33a>
 8001dc8:	4843      	ldr	r0, [pc, #268]	@ (8001ed8 <HAL_RCC_OscConfig+0x440>)
 8001dca:	f44f 71ec 	mov.w	r1, #472	@ 0x1d8
 8001dce:	f7ff f889 	bl	8000ee4 <assert_failed>
        assert_param(IS_RCC_PLLP_VALUE(RCC_OscInitStruct->PLL.PLLP));
 8001dd2:	6aa2      	ldr	r2, [r4, #40]	@ 0x28
 8001dd4:	2a08      	cmp	r2, #8
 8001dd6:	d804      	bhi.n	8001de2 <HAL_RCC_OscConfig+0x34a>
 8001dd8:	f44f 73aa 	mov.w	r3, #340	@ 0x154
 8001ddc:	40d3      	lsrs	r3, r2
 8001dde:	07d8      	lsls	r0, r3, #31
 8001de0:	d404      	bmi.n	8001dec <HAL_RCC_OscConfig+0x354>
 8001de2:	483d      	ldr	r0, [pc, #244]	@ (8001ed8 <HAL_RCC_OscConfig+0x440>)
 8001de4:	f240 11d9 	movw	r1, #473	@ 0x1d9
 8001de8:	f7ff f87c 	bl	8000ee4 <assert_failed>
        assert_param(IS_RCC_PLLQ_VALUE(RCC_OscInitStruct->PLL.PLLQ));
 8001dec:	6ae3      	ldr	r3, [r4, #44]	@ 0x2c
 8001dee:	3b02      	subs	r3, #2
 8001df0:	2b0d      	cmp	r3, #13
 8001df2:	d904      	bls.n	8001dfe <HAL_RCC_OscConfig+0x366>
 8001df4:	4838      	ldr	r0, [pc, #224]	@ (8001ed8 <HAL_RCC_OscConfig+0x440>)
 8001df6:	f44f 71ed 	mov.w	r1, #474	@ 0x1da
 8001dfa:	f7ff f873 	bl	8000ee4 <assert_failed>
        __HAL_RCC_PLL_DISABLE();
 8001dfe:	4b37      	ldr	r3, [pc, #220]	@ (8001edc <HAL_RCC_OscConfig+0x444>)
        while (__HAL_RCC_GET_FLAG(RCC_FLAG_PLLRDY) != RESET)
 8001e00:	4e34      	ldr	r6, [pc, #208]	@ (8001ed4 <HAL_RCC_OscConfig+0x43c>)
        __HAL_RCC_PLL_DISABLE();
 8001e02:	2200      	movs	r2, #0
 8001e04:	661a      	str	r2, [r3, #96]	@ 0x60
        tickstart = HAL_GetTick();
 8001e06:	f7ff f98d 	bl	8001124 <HAL_GetTick>
 8001e0a:	4605      	mov	r5, r0
        while (__HAL_RCC_GET_FLAG(RCC_FLAG_PLLRDY) != RESET)
 8001e0c:	6833      	ldr	r3, [r6, #0]
 8001e0e:	0199      	lsls	r1, r3, #6
 8001e10:	d41f      	bmi.n	8001e52 <HAL_RCC_OscConfig+0x3ba>
        WRITE_REG(RCC->PLLCFGR, (RCC_OscInitStruct->PLL.PLLSource                                            | \
 8001e12:	e9d4 3207 	ldrd	r3, r2, [r4, #28]
 8001e16:	4313      	orrs	r3, r2
 8001e18:	6a62      	ldr	r2, [r4, #36]	@ 0x24
        while (__HAL_RCC_GET_FLAG(RCC_FLAG_PLLRDY) == RESET)
 8001e1a:	4d2e      	ldr	r5, [pc, #184]	@ (8001ed4 <HAL_RCC_OscConfig+0x43c>)
        WRITE_REG(RCC->PLLCFGR, (RCC_OscInitStruct->PLL.PLLSource                                            | \
 8001e1c:	ea43 1382 	orr.w	r3, r3, r2, lsl #6
 8001e20:	6ae2      	ldr	r2, [r4, #44]	@ 0x2c
 8001e22:	ea43 6302 	orr.w	r3, r3, r2, lsl #24
 8001e26:	6aa2      	ldr	r2, [r4, #40]	@ 0x28
 8001e28:	0852      	lsrs	r2, r2, #1
 8001e2a:	3a01      	subs	r2, #1
 8001e2c:	ea43 4302 	orr.w	r3, r3, r2, lsl #16
 8001e30:	6073      	str	r3, [r6, #4]
        __HAL_RCC_PLL_ENABLE();
 8001e32:	4b2a      	ldr	r3, [pc, #168]	@ (8001edc <HAL_RCC_OscConfig+0x444>)
 8001e34:	2201      	movs	r2, #1
 8001e36:	661a      	str	r2, [r3, #96]	@ 0x60
        tickstart = HAL_GetTick();
 8001e38:	f7ff f974 	bl	8001124 <HAL_GetTick>
 8001e3c:	4604      	mov	r4, r0
        while (__HAL_RCC_GET_FLAG(RCC_FLAG_PLLRDY) == RESET)
 8001e3e:	682b      	ldr	r3, [r5, #0]
 8001e40:	019a      	lsls	r2, r3, #6
 8001e42:	f53f ae4f 	bmi.w	8001ae4 <HAL_RCC_OscConfig+0x4c>
          if ((HAL_GetTick() - tickstart) > PLL_TIMEOUT_VALUE)
 8001e46:	f7ff f96d 	bl	8001124 <HAL_GetTick>
 8001e4a:	1b00      	subs	r0, r0, r4
 8001e4c:	2802      	cmp	r0, #2
 8001e4e:	d9f6      	bls.n	8001e3e <HAL_RCC_OscConfig+0x3a6>
 8001e50:	e681      	b.n	8001b56 <HAL_RCC_OscConfig+0xbe>
          if ((HAL_GetTick() - tickstart) > PLL_TIMEOUT_VALUE)
 8001e52:	f7ff f967 	bl	8001124 <HAL_GetTick>
 8001e56:	1b40      	subs	r0, r0, r5
 8001e58:	2802      	cmp	r0, #2
 8001e5a:	d9d7      	bls.n	8001e0c <HAL_RCC_OscConfig+0x374>
 8001e5c:	e67b      	b.n	8001b56 <HAL_RCC_OscConfig+0xbe>
        __HAL_RCC_PLL_DISABLE();
 8001e5e:	4b1f      	ldr	r3, [pc, #124]	@ (8001edc <HAL_RCC_OscConfig+0x444>)
 8001e60:	2200      	movs	r2, #0
 8001e62:	661a      	str	r2, [r3, #96]	@ 0x60
        tickstart = HAL_GetTick();
 8001e64:	f7ff f95e 	bl	8001124 <HAL_GetTick>
 8001e68:	4604      	mov	r4, r0
        while (__HAL_RCC_GET_FLAG(RCC_FLAG_PLLRDY) != RESET)
 8001e6a:	682b      	ldr	r3, [r5, #0]
 8001e6c:	019b      	lsls	r3, r3, #6
 8001e6e:	f57f ae39 	bpl.w	8001ae4 <HAL_RCC_OscConfig+0x4c>
          if ((HAL_GetTick() - tickstart) > PLL_TIMEOUT_VALUE)
 8001e72:	f7ff f957 	bl	8001124 <HAL_GetTick>
 8001e76:	1b00      	subs	r0, r0, r4
 8001e78:	2802      	cmp	r0, #2
 8001e7a:	d9f6      	bls.n	8001e6a <HAL_RCC_OscConfig+0x3d2>
 8001e7c:	e66b      	b.n	8001b56 <HAL_RCC_OscConfig+0xbe>
      if ((RCC_OscInitStruct->PLL.PLLState) == RCC_PLL_OFF)
 8001e7e:	2b01      	cmp	r3, #1
 8001e80:	f43f ae52 	beq.w	8001b28 <HAL_RCC_OscConfig+0x90>
        pll_config = RCC->PLLCFGR;
 8001e84:	686b      	ldr	r3, [r5, #4]
        if (((RCC_OscInitStruct->PLL.PLLState) == RCC_PLL_OFF) ||
 8001e86:	69e2      	ldr	r2, [r4, #28]
            (READ_BIT(pll_config, RCC_PLLCFGR_PLLSRC) != RCC_OscInitStruct->PLL.PLLSource) ||
 8001e88:	f403 0180 	and.w	r1, r3, #4194304	@ 0x400000
        if (((RCC_OscInitStruct->PLL.PLLState) == RCC_PLL_OFF) ||
 8001e8c:	4291      	cmp	r1, r2
 8001e8e:	f47f ae4b 	bne.w	8001b28 <HAL_RCC_OscConfig+0x90>
            (READ_BIT(pll_config, RCC_PLLCFGR_PLLSRC) != RCC_OscInitStruct->PLL.PLLSource) ||
 8001e92:	6a21      	ldr	r1, [r4, #32]
            (READ_BIT(pll_config, RCC_PLLCFGR_PLLM) != (RCC_OscInitStruct->PLL.PLLM) << RCC_PLLCFGR_PLLM_Pos) ||
 8001e94:	f003 023f 	and.w	r2, r3, #63	@ 0x3f
            (READ_BIT(pll_config, RCC_PLLCFGR_PLLSRC) != RCC_OscInitStruct->PLL.PLLSource) ||
 8001e98:	428a      	cmp	r2, r1
 8001e9a:	f47f ae45 	bne.w	8001b28 <HAL_RCC_OscConfig+0x90>
            (READ_BIT(pll_config, RCC_PLLCFGR_PLLN) != (RCC_OscInitStruct->PLL.PLLN) << RCC_PLLCFGR_PLLN_Pos) ||
 8001e9e:	6a61      	ldr	r1, [r4, #36]	@ 0x24
            (READ_BIT(pll_config, RCC_PLLCFGR_PLLM) != (RCC_OscInitStruct->PLL.PLLM) << RCC_PLLCFGR_PLLM_Pos) ||
 8001ea0:	f647 72c0 	movw	r2, #32704	@ 0x7fc0
 8001ea4:	401a      	ands	r2, r3
 8001ea6:	ebb2 1f81 	cmp.w	r2, r1, lsl #6
 8001eaa:	f47f ae3d 	bne.w	8001b28 <HAL_RCC_OscConfig+0x90>
            (READ_BIT(pll_config, RCC_PLLCFGR_PLLP) != (((RCC_OscInitStruct->PLL.PLLP >> 1U) - 1U)) << RCC_PLLCFGR_PLLP_Pos) ||
 8001eae:	6aa2      	ldr	r2, [r4, #40]	@ 0x28
 8001eb0:	0852      	lsrs	r2, r2, #1
 8001eb2:	f403 3140 	and.w	r1, r3, #196608	@ 0x30000
 8001eb6:	3a01      	subs	r2, #1
            (READ_BIT(pll_config, RCC_PLLCFGR_PLLN) != (RCC_OscInitStruct->PLL.PLLN) << RCC_PLLCFGR_PLLN_Pos) ||
 8001eb8:	ebb1 4f02 	cmp.w	r1, r2, lsl #16
 8001ebc:	f47f ae34 	bne.w	8001b28 <HAL_RCC_OscConfig+0x90>
            (READ_BIT(pll_config, RCC_PLLCFGR_PLLQ) != (RCC_OscInitStruct->PLL.PLLQ << RCC_PLLCFGR_PLLQ_Pos)))
 8001ec0:	6ae2      	ldr	r2, [r4, #44]	@ 0x2c
 8001ec2:	f003 6370 	and.w	r3, r3, #251658240	@ 0xf000000
            (READ_BIT(pll_config, RCC_PLLCFGR_PLLP) != (((RCC_OscInitStruct->PLL.PLLP >> 1U) - 1U)) << RCC_PLLCFGR_PLLP_Pos) ||
 8001ec6:	ebb3 6f02 	cmp.w	r3, r2, lsl #24
 8001eca:	bf14      	ite	ne
 8001ecc:	2001      	movne	r0, #1
 8001ece:	2000      	moveq	r0, #0
 8001ed0:	e642      	b.n	8001b58 <HAL_RCC_OscConfig+0xc0>
 8001ed2:	bf00      	nop
 8001ed4:	40023800 	.word	0x40023800
 8001ed8:	08002593 	.word	0x08002593
 8001edc:	42470000 	.word	0x42470000

08001ee0 <HAL_RCC_GetSysClockFreq>:
  uint32_t pllvco = 0U;
  uint32_t pllp = 0U;
  uint32_t sysclockfreq = 0U;

  /* Get SYSCLK source -------------------------------------------------------*/
  switch (RCC->CFGR & RCC_CFGR_SWS)
 8001ee0:	4913      	ldr	r1, [pc, #76]	@ (8001f30 <HAL_RCC_GetSysClockFreq+0x50>)
{
 8001ee2:	b508      	push	{r3, lr}
  switch (RCC->CFGR & RCC_CFGR_SWS)
 8001ee4:	688b      	ldr	r3, [r1, #8]
 8001ee6:	f003 030c 	and.w	r3, r3, #12
 8001eea:	2b04      	cmp	r3, #4
 8001eec:	d01c      	beq.n	8001f28 <HAL_RCC_GetSysClockFreq+0x48>
 8001eee:	2b08      	cmp	r3, #8
 8001ef0:	d11c      	bne.n	8001f2c <HAL_RCC_GetSysClockFreq+0x4c>
    }
    case RCC_CFGR_SWS_PLL:  /* PLL used as system clock  source */
    {
      /* PLL_VCO = (HSE_VALUE or HSI_VALUE / PLLM) * PLLN
      SYSCLK = PLL_VCO / PLLP */
      pllm = RCC->PLLCFGR & RCC_PLLCFGR_PLLM;
 8001ef2:	684a      	ldr	r2, [r1, #4]
      if (__HAL_RCC_GET_PLL_OSCSOURCE() != RCC_PLLSOURCE_HSI)
 8001ef4:	684b      	ldr	r3, [r1, #4]
      {
        /* HSE used as PLL clock source */
        pllvco = (uint32_t)((((uint64_t) HSE_VALUE * ((uint64_t)((RCC->PLLCFGR & RCC_PLLCFGR_PLLN) >> RCC_PLLCFGR_PLLN_Pos)))) / (uint64_t)pllm);
 8001ef6:	6849      	ldr	r1, [r1, #4]
      if (__HAL_RCC_GET_PLL_OSCSOURCE() != RCC_PLLSOURCE_HSI)
 8001ef8:	f413 0380 	ands.w	r3, r3, #4194304	@ 0x400000
        pllvco = (uint32_t)((((uint64_t) HSE_VALUE * ((uint64_t)((RCC->PLLCFGR & RCC_PLLCFGR_PLLN) >> RCC_PLLCFGR_PLLN_Pos)))) / (uint64_t)pllm);
 8001efc:	bf14      	ite	ne
 8001efe:	480d      	ldrne	r0, [pc, #52]	@ (8001f34 <HAL_RCC_GetSysClockFreq+0x54>)
      }
      else
      {
        /* HSI used as PLL clock source */
        pllvco = (uint32_t)((((uint64_t) HSI_VALUE * ((uint64_t)((RCC->PLLCFGR & RCC_PLLCFGR_PLLN) >> RCC_PLLCFGR_PLLN_Pos)))) / (uint64_t)pllm);
 8001f00:	480d      	ldreq	r0, [pc, #52]	@ (8001f38 <HAL_RCC_GetSysClockFreq+0x58>)
        pllvco = (uint32_t)((((uint64_t) HSE_VALUE * ((uint64_t)((RCC->PLLCFGR & RCC_PLLCFGR_PLLN) >> RCC_PLLCFGR_PLLN_Pos)))) / (uint64_t)pllm);
 8001f02:	f3c1 1188 	ubfx	r1, r1, #6, #9
 8001f06:	bf18      	it	ne
 8001f08:	2300      	movne	r3, #0
      pllm = RCC->PLLCFGR & RCC_PLLCFGR_PLLM;
 8001f0a:	f002 023f 	and.w	r2, r2, #63	@ 0x3f
        pllvco = (uint32_t)((((uint64_t) HSI_VALUE * ((uint64_t)((RCC->PLLCFGR & RCC_PLLCFGR_PLLN) >> RCC_PLLCFGR_PLLN_Pos)))) / (uint64_t)pllm);
 8001f0e:	fba1 0100 	umull	r0, r1, r1, r0
 8001f12:	f7fe f95f 	bl	80001d4 <__aeabi_uldivmod>
      }
      pllp = ((((RCC->PLLCFGR & RCC_PLLCFGR_PLLP) >> RCC_PLLCFGR_PLLP_Pos) + 1U) * 2U);
 8001f16:	4b06      	ldr	r3, [pc, #24]	@ (8001f30 <HAL_RCC_GetSysClockFreq+0x50>)
 8001f18:	685b      	ldr	r3, [r3, #4]
 8001f1a:	f3c3 4301 	ubfx	r3, r3, #16, #2
 8001f1e:	3301      	adds	r3, #1
 8001f20:	005b      	lsls	r3, r3, #1

      sysclockfreq = pllvco / pllp;
 8001f22:	fbb0 f0f3 	udiv	r0, r0, r3
      sysclockfreq = HSI_VALUE;
      break;
    }
  }
  return sysclockfreq;
}
 8001f26:	bd08      	pop	{r3, pc}
  switch (RCC->CFGR & RCC_CFGR_SWS)
 8001f28:	4802      	ldr	r0, [pc, #8]	@ (8001f34 <HAL_RCC_GetSysClockFreq+0x54>)
 8001f2a:	e7fc      	b.n	8001f26 <HAL_RCC_GetSysClockFreq+0x46>
      sysclockfreq = HSI_VALUE;
 8001f2c:	4802      	ldr	r0, [pc, #8]	@ (8001f38 <HAL_RCC_GetSysClockFreq+0x58>)
  return sysclockfreq;
 8001f2e:	e7fa      	b.n	8001f26 <HAL_RCC_GetSysClockFreq+0x46>
 8001f30:	40023800 	.word	0x40023800
 8001f34:	016e3600 	.word	0x016e3600
 8001f38:	00f42400 	.word	0x00f42400

08001f3c <HAL_RCC_ClockConfig>:
{
 8001f3c:	e92d 41f0 	stmdb	sp!, {r4, r5, r6, r7, r8, lr}
 8001f40:	460d      	mov	r5, r1
  if (RCC_ClkInitStruct == NULL)
 8001f42:	4604      	mov	r4, r0
 8001f44:	b910      	cbnz	r0, 8001f4c <HAL_RCC_ClockConfig+0x10>
    return HAL_ERROR;
 8001f46:	2001      	movs	r0, #1
}
 8001f48:	e8bd 81f0 	ldmia.w	sp!, {r4, r5, r6, r7, r8, pc}
  assert_param(IS_RCC_CLOCKTYPE(RCC_ClkInitStruct->ClockType));
 8001f4c:	6803      	ldr	r3, [r0, #0]
 8001f4e:	3b01      	subs	r3, #1
 8001f50:	2b0e      	cmp	r3, #14
 8001f52:	d904      	bls.n	8001f5e <HAL_RCC_ClockConfig+0x22>
 8001f54:	486d      	ldr	r0, [pc, #436]	@ (800210c <HAL_RCC_ClockConfig+0x1d0>)
 8001f56:	f240 215a 	movw	r1, #602	@ 0x25a
 8001f5a:	f7fe ffc3 	bl	8000ee4 <assert_failed>
  assert_param(IS_FLASH_LATENCY(FLatency));
 8001f5e:	2d07      	cmp	r5, #7
 8001f60:	d904      	bls.n	8001f6c <HAL_RCC_ClockConfig+0x30>
 8001f62:	486a      	ldr	r0, [pc, #424]	@ (800210c <HAL_RCC_ClockConfig+0x1d0>)
 8001f64:	f240 215b 	movw	r1, #603	@ 0x25b
 8001f68:	f7fe ffbc 	bl	8000ee4 <assert_failed>
  if (FLatency > __HAL_FLASH_GET_LATENCY())
 8001f6c:	4b68      	ldr	r3, [pc, #416]	@ (8002110 <HAL_RCC_ClockConfig+0x1d4>)
 8001f6e:	681a      	ldr	r2, [r3, #0]
 8001f70:	f002 0207 	and.w	r2, r2, #7
 8001f74:	42aa      	cmp	r2, r5
 8001f76:	d33d      	bcc.n	8001ff4 <HAL_RCC_ClockConfig+0xb8>
  if (((RCC_ClkInitStruct->ClockType) & RCC_CLOCKTYPE_HCLK) == RCC_CLOCKTYPE_HCLK)
 8001f78:	6822      	ldr	r2, [r4, #0]
 8001f7a:	0796      	lsls	r6, r2, #30
 8001f7c:	d442      	bmi.n	8002004 <HAL_RCC_ClockConfig+0xc8>
  if (((RCC_ClkInitStruct->ClockType) & RCC_CLOCKTYPE_SYSCLK) == RCC_CLOCKTYPE_SYSCLK)
 8001f7e:	6823      	ldr	r3, [r4, #0]
 8001f80:	07d9      	lsls	r1, r3, #31
 8001f82:	d46c      	bmi.n	800205e <HAL_RCC_ClockConfig+0x122>
  if (FLatency < __HAL_FLASH_GET_LATENCY())
 8001f84:	4b62      	ldr	r3, [pc, #392]	@ (8002110 <HAL_RCC_ClockConfig+0x1d4>)
 8001f86:	681a      	ldr	r2, [r3, #0]
 8001f88:	f002 0207 	and.w	r2, r2, #7
 8001f8c:	42aa      	cmp	r2, r5
 8001f8e:	f200 809b 	bhi.w	80020c8 <HAL_RCC_ClockConfig+0x18c>
  if (((RCC_ClkInitStruct->ClockType) & RCC_CLOCKTYPE_PCLK1) == RCC_CLOCKTYPE_PCLK1)
 8001f92:	6823      	ldr	r3, [r4, #0]
 8001f94:	075a      	lsls	r2, r3, #29
 8001f96:	f100 80a0 	bmi.w	80020da <HAL_RCC_ClockConfig+0x19e>
  if (((RCC_ClkInitStruct->ClockType) & RCC_CLOCKTYPE_PCLK2) == RCC_CLOCKTYPE_PCLK2)
 8001f9a:	6823      	ldr	r3, [r4, #0]
 8001f9c:	071b      	lsls	r3, r3, #28
 8001f9e:	d518      	bpl.n	8001fd2 <HAL_RCC_ClockConfig+0x96>
    assert_param(IS_RCC_PCLK(RCC_ClkInitStruct->APB2CLKDivider));
 8001fa0:	6923      	ldr	r3, [r4, #16]
 8001fa2:	f433 5280 	bics.w	r2, r3, #4096	@ 0x1000
 8001fa6:	d00c      	beq.n	8001fc2 <HAL_RCC_ClockConfig+0x86>
 8001fa8:	f423 6200 	bic.w	r2, r3, #2048	@ 0x800
 8001fac:	f5b2 5fa0 	cmp.w	r2, #5120	@ 0x1400
 8001fb0:	d007      	beq.n	8001fc2 <HAL_RCC_ClockConfig+0x86>
 8001fb2:	f5b3 5fc0 	cmp.w	r3, #6144	@ 0x1800
 8001fb6:	d004      	beq.n	8001fc2 <HAL_RCC_ClockConfig+0x86>
 8001fb8:	4854      	ldr	r0, [pc, #336]	@ (800210c <HAL_RCC_ClockConfig+0x1d0>)
 8001fba:	f240 21ca 	movw	r1, #714	@ 0x2ca
 8001fbe:	f7fe ff91 	bl	8000ee4 <assert_failed>
    MODIFY_REG(RCC->CFGR, RCC_CFGR_PPRE2, ((RCC_ClkInitStruct->APB2CLKDivider) << 3U));
 8001fc2:	4a54      	ldr	r2, [pc, #336]	@ (8002114 <HAL_RCC_ClockConfig+0x1d8>)
 8001fc4:	6921      	ldr	r1, [r4, #16]
 8001fc6:	6893      	ldr	r3, [r2, #8]
 8001fc8:	f423 4360 	bic.w	r3, r3, #57344	@ 0xe000
 8001fcc:	ea43 03c1 	orr.w	r3, r3, r1, lsl #3
 8001fd0:	6093      	str	r3, [r2, #8]
  SystemCoreClock = HAL_RCC_GetSysClockFreq() >> AHBPrescTable[(RCC->CFGR & RCC_CFGR_HPRE) >> RCC_CFGR_HPRE_Pos];
 8001fd2:	f7ff ff85 	bl	8001ee0 <HAL_RCC_GetSysClockFreq>
 8001fd6:	4b4f      	ldr	r3, [pc, #316]	@ (8002114 <HAL_RCC_ClockConfig+0x1d8>)
 8001fd8:	4a4f      	ldr	r2, [pc, #316]	@ (8002118 <HAL_RCC_ClockConfig+0x1dc>)
 8001fda:	689b      	ldr	r3, [r3, #8]
 8001fdc:	f3c3 1303 	ubfx	r3, r3, #4, #4
 8001fe0:	5cd3      	ldrb	r3, [r2, r3]
 8001fe2:	40d8      	lsrs	r0, r3
 8001fe4:	4b4d      	ldr	r3, [pc, #308]	@ (800211c <HAL_RCC_ClockConfig+0x1e0>)
 8001fe6:	6018      	str	r0, [r3, #0]
  HAL_InitTick(uwTickPrio);
 8001fe8:	4b4d      	ldr	r3, [pc, #308]	@ (8002120 <HAL_RCC_ClockConfig+0x1e4>)
 8001fea:	6818      	ldr	r0, [r3, #0]
 8001fec:	f7ff f850 	bl	8001090 <HAL_InitTick>
  return HAL_OK;
 8001ff0:	2000      	movs	r0, #0
 8001ff2:	e7a9      	b.n	8001f48 <HAL_RCC_ClockConfig+0xc>
    __HAL_FLASH_SET_LATENCY(FLatency);
 8001ff4:	b2ea      	uxtb	r2, r5
 8001ff6:	701a      	strb	r2, [r3, #0]
    if (__HAL_FLASH_GET_LATENCY() != FLatency)
 8001ff8:	681b      	ldr	r3, [r3, #0]
 8001ffa:	f003 0307 	and.w	r3, r3, #7
 8001ffe:	42ab      	cmp	r3, r5
 8002000:	d1a1      	bne.n	8001f46 <HAL_RCC_ClockConfig+0xa>
 8002002:	e7b9      	b.n	8001f78 <HAL_RCC_ClockConfig+0x3c>
    if (((RCC_ClkInitStruct->ClockType) & RCC_CLOCKTYPE_PCLK1) == RCC_CLOCKTYPE_PCLK1)
 8002004:	4b43      	ldr	r3, [pc, #268]	@ (8002114 <HAL_RCC_ClockConfig+0x1d8>)
 8002006:	f012 0f04 	tst.w	r2, #4
      MODIFY_REG(RCC->CFGR, RCC_CFGR_PPRE1, RCC_HCLK_DIV16);
 800200a:	bf1e      	ittt	ne
 800200c:	6899      	ldrne	r1, [r3, #8]
 800200e:	f441 51e0 	orrne.w	r1, r1, #7168	@ 0x1c00
 8002012:	6099      	strne	r1, [r3, #8]
    if (((RCC_ClkInitStruct->ClockType) & RCC_CLOCKTYPE_PCLK2) == RCC_CLOCKTYPE_PCLK2)
 8002014:	0710      	lsls	r0, r2, #28
      MODIFY_REG(RCC->CFGR, RCC_CFGR_PPRE2, (RCC_HCLK_DIV16 << 3));
 8002016:	bf42      	ittt	mi
 8002018:	689a      	ldrmi	r2, [r3, #8]
 800201a:	f442 4260 	orrmi.w	r2, r2, #57344	@ 0xe000
 800201e:	609a      	strmi	r2, [r3, #8]
    assert_param(IS_RCC_HCLK(RCC_ClkInitStruct->AHBCLKDivider));
 8002020:	68a3      	ldr	r3, [r4, #8]
 8002022:	f033 0280 	bics.w	r2, r3, #128	@ 0x80
 8002026:	d012      	beq.n	800204e <HAL_RCC_ClockConfig+0x112>
 8002028:	f023 0220 	bic.w	r2, r3, #32
 800202c:	2a90      	cmp	r2, #144	@ 0x90
 800202e:	d00e      	beq.n	800204e <HAL_RCC_ClockConfig+0x112>
 8002030:	f023 0240 	bic.w	r2, r3, #64	@ 0x40
 8002034:	2aa0      	cmp	r2, #160	@ 0xa0
 8002036:	d00a      	beq.n	800204e <HAL_RCC_ClockConfig+0x112>
 8002038:	f023 0210 	bic.w	r2, r3, #16
 800203c:	2ac0      	cmp	r2, #192	@ 0xc0
 800203e:	d006      	beq.n	800204e <HAL_RCC_ClockConfig+0x112>
 8002040:	2bf0      	cmp	r3, #240	@ 0xf0
 8002042:	d004      	beq.n	800204e <HAL_RCC_ClockConfig+0x112>
 8002044:	4831      	ldr	r0, [pc, #196]	@ (800210c <HAL_RCC_ClockConfig+0x1d0>)
 8002046:	f240 217e 	movw	r1, #638	@ 0x27e
 800204a:	f7fe ff4b 	bl	8000ee4 <assert_failed>
    MODIFY_REG(RCC->CFGR, RCC_CFGR_HPRE, RCC_ClkInitStruct->AHBCLKDivider);
 800204e:	4a31      	ldr	r2, [pc, #196]	@ (8002114 <HAL_RCC_ClockConfig+0x1d8>)
 8002050:	68a1      	ldr	r1, [r4, #8]
 8002052:	6893      	ldr	r3, [r2, #8]
 8002054:	f023 03f0 	bic.w	r3, r3, #240	@ 0xf0
 8002058:	430b      	orrs	r3, r1
 800205a:	6093      	str	r3, [r2, #8]
 800205c:	e78f      	b.n	8001f7e <HAL_RCC_ClockConfig+0x42>
    assert_param(IS_RCC_SYSCLKSOURCE(RCC_ClkInitStruct->SYSCLKSource));
 800205e:	6863      	ldr	r3, [r4, #4]
 8002060:	2b03      	cmp	r3, #3
 8002062:	d904      	bls.n	800206e <HAL_RCC_ClockConfig+0x132>
 8002064:	4829      	ldr	r0, [pc, #164]	@ (800210c <HAL_RCC_ClockConfig+0x1d0>)
 8002066:	f240 2185 	movw	r1, #645	@ 0x285
 800206a:	f7fe ff3b 	bl	8000ee4 <assert_failed>
    if (RCC_ClkInitStruct->SYSCLKSource == RCC_SYSCLKSOURCE_HSE)
 800206e:	6862      	ldr	r2, [r4, #4]
 8002070:	4b28      	ldr	r3, [pc, #160]	@ (8002114 <HAL_RCC_ClockConfig+0x1d8>)
 8002072:	2a01      	cmp	r2, #1
 8002074:	d11e      	bne.n	80020b4 <HAL_RCC_ClockConfig+0x178>
      if (__HAL_RCC_GET_FLAG(RCC_FLAG_HSERDY) == RESET)
 8002076:	681b      	ldr	r3, [r3, #0]
 8002078:	f413 3f00 	tst.w	r3, #131072	@ 0x20000
      if (__HAL_RCC_GET_FLAG(RCC_FLAG_HSIRDY) == RESET)
 800207c:	f43f af63 	beq.w	8001f46 <HAL_RCC_ClockConfig+0xa>
    __HAL_RCC_SYSCLK_CONFIG(RCC_ClkInitStruct->SYSCLKSource);
 8002080:	4e24      	ldr	r6, [pc, #144]	@ (8002114 <HAL_RCC_ClockConfig+0x1d8>)
 8002082:	68b3      	ldr	r3, [r6, #8]
 8002084:	f023 0303 	bic.w	r3, r3, #3
 8002088:	4313      	orrs	r3, r2
 800208a:	60b3      	str	r3, [r6, #8]
    tickstart = HAL_GetTick();
 800208c:	f7ff f84a 	bl	8001124 <HAL_GetTick>
      if ((HAL_GetTick() - tickstart) > CLOCKSWITCH_TIMEOUT_VALUE)
 8002090:	f241 3888 	movw	r8, #5000	@ 0x1388
    tickstart = HAL_GetTick();
 8002094:	4607      	mov	r7, r0
    while (__HAL_RCC_GET_SYSCLK_SOURCE() != (RCC_ClkInitStruct->SYSCLKSource << RCC_CFGR_SWS_Pos))
 8002096:	68b3      	ldr	r3, [r6, #8]
 8002098:	6862      	ldr	r2, [r4, #4]
 800209a:	f003 030c 	and.w	r3, r3, #12
 800209e:	ebb3 0f82 	cmp.w	r3, r2, lsl #2
 80020a2:	f43f af6f 	beq.w	8001f84 <HAL_RCC_ClockConfig+0x48>
      if ((HAL_GetTick() - tickstart) > CLOCKSWITCH_TIMEOUT_VALUE)
 80020a6:	f7ff f83d 	bl	8001124 <HAL_GetTick>
 80020aa:	1bc0      	subs	r0, r0, r7
 80020ac:	4540      	cmp	r0, r8
 80020ae:	d9f2      	bls.n	8002096 <HAL_RCC_ClockConfig+0x15a>
        return HAL_TIMEOUT;
 80020b0:	2003      	movs	r0, #3
 80020b2:	e749      	b.n	8001f48 <HAL_RCC_ClockConfig+0xc>
    else if ((RCC_ClkInitStruct->SYSCLKSource == RCC_SYSCLKSOURCE_PLLCLK)   ||
 80020b4:	1e91      	subs	r1, r2, #2
 80020b6:	2901      	cmp	r1, #1
      if (__HAL_RCC_GET_FLAG(RCC_FLAG_PLLRDY) == RESET)
 80020b8:	681b      	ldr	r3, [r3, #0]
    else if ((RCC_ClkInitStruct->SYSCLKSource == RCC_SYSCLKSOURCE_PLLCLK)   ||
 80020ba:	d802      	bhi.n	80020c2 <HAL_RCC_ClockConfig+0x186>
      if (__HAL_RCC_GET_FLAG(RCC_FLAG_PLLRDY) == RESET)
 80020bc:	f013 7f00 	tst.w	r3, #33554432	@ 0x2000000
 80020c0:	e7dc      	b.n	800207c <HAL_RCC_ClockConfig+0x140>
      if (__HAL_RCC_GET_FLAG(RCC_FLAG_HSIRDY) == RESET)
 80020c2:	f013 0f02 	tst.w	r3, #2
 80020c6:	e7d9      	b.n	800207c <HAL_RCC_ClockConfig+0x140>
    __HAL_FLASH_SET_LATENCY(FLatency);
 80020c8:	b2ea      	uxtb	r2, r5
 80020ca:	701a      	strb	r2, [r3, #0]
    if (__HAL_FLASH_GET_LATENCY() != FLatency)
 80020cc:	681b      	ldr	r3, [r3, #0]
 80020ce:	f003 0307 	and.w	r3, r3, #7
 80020d2:	42ab      	cmp	r3, r5
 80020d4:	f47f af37 	bne.w	8001f46 <HAL_RCC_ClockConfig+0xa>
 80020d8:	e75b      	b.n	8001f92 <HAL_RCC_ClockConfig+0x56>
    assert_param(IS_RCC_PCLK(RCC_ClkInitStruct->APB1CLKDivider));
 80020da:	68e3      	ldr	r3, [r4, #12]
 80020dc:	f433 5280 	bics.w	r2, r3, #4096	@ 0x1000
 80020e0:	d00c      	beq.n	80020fc <HAL_RCC_ClockConfig+0x1c0>
 80020e2:	f423 6200 	bic.w	r2, r3, #2048	@ 0x800
 80020e6:	f5b2 5fa0 	cmp.w	r2, #5120	@ 0x1400
 80020ea:	d007      	beq.n	80020fc <HAL_RCC_ClockConfig+0x1c0>
 80020ec:	f5b3 5fc0 	cmp.w	r3, #6144	@ 0x1800
 80020f0:	d004      	beq.n	80020fc <HAL_RCC_ClockConfig+0x1c0>
 80020f2:	4806      	ldr	r0, [pc, #24]	@ (800210c <HAL_RCC_ClockConfig+0x1d0>)
 80020f4:	f240 21c3 	movw	r1, #707	@ 0x2c3
 80020f8:	f7fe fef4 	bl	8000ee4 <assert_failed>
    MODIFY_REG(RCC->CFGR, RCC_CFGR_PPRE1, RCC_ClkInitStruct->APB1CLKDivider);
 80020fc:	4a05      	ldr	r2, [pc, #20]	@ (8002114 <HAL_RCC_ClockConfig+0x1d8>)
 80020fe:	68e1      	ldr	r1, [r4, #12]
 8002100:	6893      	ldr	r3, [r2, #8]
 8002102:	f423 53e0 	bic.w	r3, r3, #7168	@ 0x1c00
 8002106:	430b      	orrs	r3, r1
 8002108:	6093      	str	r3, [r2, #8]
 800210a:	e746      	b.n	8001f9a <HAL_RCC_ClockConfig+0x5e>
 800210c:	08002593 	.word	0x08002593
 8002110:	40023c00 	.word	0x40023c00
 8002114:	40023800 	.word	0x40023800
 8002118:	08002744 	.word	0x08002744
 800211c:	20000000 	.word	0x20000000
 8002120:	20000008 	.word	0x20000008

08002124 <HAL_RCC_GetPCLK1Freq>:
  * @retval PCLK1 frequency
  */
uint32_t HAL_RCC_GetPCLK1Freq(void)
{
  /* Get HCLK source and Compute PCLK1 frequency ---------------------------*/
  return (HAL_RCC_GetHCLKFreq() >> APBPrescTable[(RCC->CFGR & RCC_CFGR_PPRE1) >> RCC_CFGR_PPRE1_Pos]);
 8002124:	4b04      	ldr	r3, [pc, #16]	@ (8002138 <HAL_RCC_GetPCLK1Freq+0x14>)
 8002126:	4a05      	ldr	r2, [pc, #20]	@ (800213c <HAL_RCC_GetPCLK1Freq+0x18>)
 8002128:	689b      	ldr	r3, [r3, #8]
 800212a:	f3c3 2382 	ubfx	r3, r3, #10, #3
 800212e:	5cd3      	ldrb	r3, [r2, r3]
 8002130:	4a03      	ldr	r2, [pc, #12]	@ (8002140 <HAL_RCC_GetPCLK1Freq+0x1c>)
 8002132:	6810      	ldr	r0, [r2, #0]
}
 8002134:	40d8      	lsrs	r0, r3
 8002136:	4770      	bx	lr
 8002138:	40023800 	.word	0x40023800
 800213c:	0800273c 	.word	0x0800273c
 8002140:	20000000 	.word	0x20000000

08002144 <HAL_RCC_GetPCLK2Freq>:
  * @retval PCLK2 frequency
  */
uint32_t HAL_RCC_GetPCLK2Freq(void)
{
  /* Get HCLK source and Compute PCLK2 frequency ---------------------------*/
  return (HAL_RCC_GetHCLKFreq() >> APBPrescTable[(RCC->CFGR & RCC_CFGR_PPRE2) >> RCC_CFGR_PPRE2_Pos]);
 8002144:	4b04      	ldr	r3, [pc, #16]	@ (8002158 <HAL_RCC_GetPCLK2Freq+0x14>)
 8002146:	4a05      	ldr	r2, [pc, #20]	@ (800215c <HAL_RCC_GetPCLK2Freq+0x18>)
 8002148:	689b      	ldr	r3, [r3, #8]
 800214a:	f3c3 3342 	ubfx	r3, r3, #13, #3
 800214e:	5cd3      	ldrb	r3, [r2, r3]
 8002150:	4a03      	ldr	r2, [pc, #12]	@ (8002160 <HAL_RCC_GetPCLK2Freq+0x1c>)
 8002152:	6810      	ldr	r0, [r2, #0]
}
 8002154:	40d8      	lsrs	r0, r3
 8002156:	4770      	bx	lr
 8002158:	40023800 	.word	0x40023800
 800215c:	0800273c 	.word	0x0800273c
 8002160:	20000000 	.word	0x20000000

08002164 <UART_SetConfig>:
  * @param  huart  Pointer to a UART_HandleTypeDef structure that contains
  *                the configuration information for the specified UART module.
  * @retval None
  */
static void UART_SetConfig(UART_HandleTypeDef *huart)
{
 8002164:	b538      	push	{r3, r4, r5, lr}
  uint32_t tmpreg;
  uint32_t pclk;

  /* Check the parameters */
  assert_param(IS_UART_BAUDRATE(huart->Init.BaudRate));
 8002166:	6842      	ldr	r2, [r0, #4]
 8002168:	4b41      	ldr	r3, [pc, #260]	@ (8002270 <UART_SetConfig+0x10c>)
 800216a:	429a      	cmp	r2, r3
{
 800216c:	4605      	mov	r5, r0
  assert_param(IS_UART_BAUDRATE(huart->Init.BaudRate));
 800216e:	d904      	bls.n	800217a <UART_SetConfig+0x16>
 8002170:	4840      	ldr	r0, [pc, #256]	@ (8002274 <UART_SetConfig+0x110>)
 8002172:	f640 6199 	movw	r1, #3737	@ 0xe99
 8002176:	f7fe feb5 	bl	8000ee4 <assert_failed>
  assert_param(IS_UART_STOPBITS(huart->Init.StopBits));
 800217a:	68eb      	ldr	r3, [r5, #12]
 800217c:	f433 5300 	bics.w	r3, r3, #8192	@ 0x2000
 8002180:	d004      	beq.n	800218c <UART_SetConfig+0x28>
 8002182:	483c      	ldr	r0, [pc, #240]	@ (8002274 <UART_SetConfig+0x110>)
 8002184:	f640 619a 	movw	r1, #3738	@ 0xe9a
 8002188:	f7fe feac 	bl	8000ee4 <assert_failed>
  assert_param(IS_UART_PARITY(huart->Init.Parity));
 800218c:	692b      	ldr	r3, [r5, #16]
 800218e:	f433 6280 	bics.w	r2, r3, #1024	@ 0x400
 8002192:	d007      	beq.n	80021a4 <UART_SetConfig+0x40>
 8002194:	f5b3 6fc0 	cmp.w	r3, #1536	@ 0x600
 8002198:	d004      	beq.n	80021a4 <UART_SetConfig+0x40>
 800219a:	4836      	ldr	r0, [pc, #216]	@ (8002274 <UART_SetConfig+0x110>)
 800219c:	f640 619b 	movw	r1, #3739	@ 0xe9b
 80021a0:	f7fe fea0 	bl	8000ee4 <assert_failed>
  assert_param(IS_UART_MODE(huart->Init.Mode));
 80021a4:	696b      	ldr	r3, [r5, #20]
 80021a6:	f64f 72f3 	movw	r2, #65523	@ 0xfff3
 80021aa:	4213      	tst	r3, r2
 80021ac:	d100      	bne.n	80021b0 <UART_SetConfig+0x4c>
 80021ae:	b923      	cbnz	r3, 80021ba <UART_SetConfig+0x56>
 80021b0:	4830      	ldr	r0, [pc, #192]	@ (8002274 <UART_SetConfig+0x110>)
 80021b2:	f640 619c 	movw	r1, #3740	@ 0xe9c
 80021b6:	f7fe fe95 	bl	8000ee4 <assert_failed>

  /*-------------------------- USART CR2 Configuration -----------------------*/
  /* Configure the UART Stop Bits: Set STOP[13:12] bits
     according to huart->Init.StopBits value */
  MODIFY_REG(huart->Instance->CR2, USART_CR2_STOP, huart->Init.StopBits);
 80021ba:	682a      	ldr	r2, [r5, #0]
 80021bc:	68e9      	ldr	r1, [r5, #12]
 80021be:	6913      	ldr	r3, [r2, #16]
     Set the M bits according to huart->Init.WordLength value
     Set PCE and PS bits according to huart->Init.Parity value
     Set TE and RE bits according to huart->Init.Mode value
     Set OVER8 bit according to huart->Init.OverSampling value */

  tmpreg = (uint32_t)huart->Init.WordLength | huart->Init.Parity | huart->Init.Mode | huart->Init.OverSampling;
 80021c0:	6928      	ldr	r0, [r5, #16]
  MODIFY_REG(huart->Instance->CR2, USART_CR2_STOP, huart->Init.StopBits);
 80021c2:	f423 5340 	bic.w	r3, r3, #12288	@ 0x3000
 80021c6:	430b      	orrs	r3, r1
 80021c8:	6113      	str	r3, [r2, #16]
  tmpreg = (uint32_t)huart->Init.WordLength | huart->Init.Parity | huart->Init.Mode | huart->Init.OverSampling;
 80021ca:	68ab      	ldr	r3, [r5, #8]
  MODIFY_REG(huart->Instance->CR1,
 80021cc:	68d1      	ldr	r1, [r2, #12]
  tmpreg = (uint32_t)huart->Init.WordLength | huart->Init.Parity | huart->Init.Mode | huart->Init.OverSampling;
 80021ce:	4303      	orrs	r3, r0
 80021d0:	6968      	ldr	r0, [r5, #20]
 80021d2:	4303      	orrs	r3, r0
 80021d4:	69e8      	ldr	r0, [r5, #28]
  MODIFY_REG(huart->Instance->CR1,
 80021d6:	f421 4116 	bic.w	r1, r1, #38400	@ 0x9600
 80021da:	f021 010c 	bic.w	r1, r1, #12
  tmpreg = (uint32_t)huart->Init.WordLength | huart->Init.Parity | huart->Init.Mode | huart->Init.OverSampling;
 80021de:	4303      	orrs	r3, r0
  MODIFY_REG(huart->Instance->CR1,
 80021e0:	430b      	orrs	r3, r1
 80021e2:	60d3      	str	r3, [r2, #12]
             (uint32_t)(USART_CR1_M | USART_CR1_PCE | USART_CR1_PS | USART_CR1_TE | USART_CR1_RE | USART_CR1_OVER8),
             tmpreg);

  /*-------------------------- USART CR3 Configuration -----------------------*/
  /* Configure the UART HFC: Set CTSE and RTSE bits according to huart->Init.HwFlowCtl value */
  MODIFY_REG(huart->Instance->CR3, (USART_CR3_RTSE | USART_CR3_CTSE), huart->Init.HwFlowCtl);
 80021e4:	6953      	ldr	r3, [r2, #20]
 80021e6:	69a9      	ldr	r1, [r5, #24]
 80021e8:	f423 7340 	bic.w	r3, r3, #768	@ 0x300
 80021ec:	430b      	orrs	r3, r1
 80021ee:	6153      	str	r3, [r2, #20]
    if ((huart->Instance == USART1) || (huart->Instance == USART6) || (huart->Instance == UART9) || (huart->Instance == UART10))
    {
      pclk = HAL_RCC_GetPCLK2Freq();
    }
#elif defined(USART6)
    if ((huart->Instance == USART1) || (huart->Instance == USART6))
 80021f0:	4b21      	ldr	r3, [pc, #132]	@ (8002278 <UART_SetConfig+0x114>)
 80021f2:	429a      	cmp	r2, r3
 80021f4:	d003      	beq.n	80021fe <UART_SetConfig+0x9a>
 80021f6:	f503 6380 	add.w	r3, r3, #1024	@ 0x400
 80021fa:	429a      	cmp	r2, r3
 80021fc:	d124      	bne.n	8002248 <UART_SetConfig+0xe4>
    {
      pclk = HAL_RCC_GetPCLK2Freq();
 80021fe:	f7ff ffa1 	bl	8002144 <HAL_RCC_GetPCLK2Freq>
    else
    {
      pclk = HAL_RCC_GetPCLK1Freq();
    }
  /*-------------------------- USART BRR Configuration ---------------------*/
  if (huart->Init.OverSampling == UART_OVERSAMPLING_8)
 8002202:	69ea      	ldr	r2, [r5, #28]
  {
    huart->Instance->BRR = UART_BRR_SAMPLING8(pclk, huart->Init.BaudRate);
 8002204:	2119      	movs	r1, #25
  if (huart->Init.OverSampling == UART_OVERSAMPLING_8)
 8002206:	f5b2 4f00 	cmp.w	r2, #32768	@ 0x8000
    huart->Instance->BRR = UART_BRR_SAMPLING8(pclk, huart->Init.BaudRate);
 800220a:	e9d5 4300 	ldrd	r4, r3, [r5]
 800220e:	fba0 0101 	umull	r0, r1, r0, r1
  if (huart->Init.OverSampling == UART_OVERSAMPLING_8)
 8002212:	d11c      	bne.n	800224e <UART_SetConfig+0xea>
    huart->Instance->BRR = UART_BRR_SAMPLING8(pclk, huart->Init.BaudRate);
 8002214:	18da      	adds	r2, r3, r3
 8002216:	f04f 0500 	mov.w	r5, #0
 800221a:	eb45 0305 	adc.w	r3, r5, r5
 800221e:	f7fd ffd9 	bl	80001d4 <__aeabi_uldivmod>
 8002222:	2264      	movs	r2, #100	@ 0x64
 8002224:	fbb0 f1f2 	udiv	r1, r0, r2
 8002228:	fb02 0311 	mls	r3, r2, r1, r0
 800222c:	00db      	lsls	r3, r3, #3
 800222e:	3332      	adds	r3, #50	@ 0x32
 8002230:	fbb3 f3f2 	udiv	r3, r3, r2
 8002234:	f003 0207 	and.w	r2, r3, #7
 8002238:	005b      	lsls	r3, r3, #1
 800223a:	eb02 1201 	add.w	r2, r2, r1, lsl #4
 800223e:	f403 73f8 	and.w	r3, r3, #496	@ 0x1f0
 8002242:	4413      	add	r3, r2
  }
  else
  {
    huart->Instance->BRR = UART_BRR_SAMPLING16(pclk, huart->Init.BaudRate);
 8002244:	60a3      	str	r3, [r4, #8]
  }
}
 8002246:	bd38      	pop	{r3, r4, r5, pc}
      pclk = HAL_RCC_GetPCLK1Freq();
 8002248:	f7ff ff6c 	bl	8002124 <HAL_RCC_GetPCLK1Freq>
 800224c:	e7d9      	b.n	8002202 <UART_SetConfig+0x9e>
    huart->Instance->BRR = UART_BRR_SAMPLING16(pclk, huart->Init.BaudRate);
 800224e:	009a      	lsls	r2, r3, #2
 8002250:	0f9b      	lsrs	r3, r3, #30
 8002252:	f7fd ffbf 	bl	80001d4 <__aeabi_uldivmod>
 8002256:	2264      	movs	r2, #100	@ 0x64
 8002258:	fbb0 f1f2 	udiv	r1, r0, r2
 800225c:	fb02 0311 	mls	r3, r2, r1, r0
 8002260:	011b      	lsls	r3, r3, #4
 8002262:	3332      	adds	r3, #50	@ 0x32
 8002264:	fbb3 f3f2 	udiv	r3, r3, r2
 8002268:	eb03 1301 	add.w	r3, r3, r1, lsl #4
 800226c:	e7ea      	b.n	8002244 <UART_SetConfig+0xe0>
 800226e:	bf00      	nop
 8002270:	00a037a0 	.word	0x00a037a0
 8002274:	080025cb 	.word	0x080025cb
 8002278:	40011000 	.word	0x40011000

0800227c <HAL_UART_Init>:
{
 800227c:	b510      	push	{r4, lr}
  if (huart == NULL)
 800227e:	4604      	mov	r4, r0
 8002280:	2800      	cmp	r0, #0
 8002282:	d065      	beq.n	8002350 <HAL_UART_Init+0xd4>
  if (huart->Init.HwFlowCtl != UART_HWCONTROL_NONE)
 8002284:	6981      	ldr	r1, [r0, #24]
    assert_param(IS_UART_HWFLOW_INSTANCE(huart->Instance));
 8002286:	6803      	ldr	r3, [r0, #0]
 8002288:	4a32      	ldr	r2, [pc, #200]	@ (8002354 <HAL_UART_Init+0xd8>)
  if (huart->Init.HwFlowCtl != UART_HWCONTROL_NONE)
 800228a:	2900      	cmp	r1, #0
 800228c:	d054      	beq.n	8002338 <HAL_UART_Init+0xbc>
    assert_param(IS_UART_HWFLOW_INSTANCE(huart->Instance));
 800228e:	4293      	cmp	r3, r2
 8002290:	d00c      	beq.n	80022ac <HAL_UART_Init+0x30>
 8002292:	f5a2 424c 	sub.w	r2, r2, #52224	@ 0xcc00
 8002296:	4293      	cmp	r3, r2
 8002298:	d008      	beq.n	80022ac <HAL_UART_Init+0x30>
 800229a:	f502 4250 	add.w	r2, r2, #53248	@ 0xd000
 800229e:	4293      	cmp	r3, r2
 80022a0:	d004      	beq.n	80022ac <HAL_UART_Init+0x30>
 80022a2:	482d      	ldr	r0, [pc, #180]	@ (8002358 <HAL_UART_Init+0xdc>)
 80022a4:	f240 1173 	movw	r1, #371	@ 0x173
 80022a8:	f7fe fe1c 	bl	8000ee4 <assert_failed>
    assert_param(IS_UART_HARDWARE_FLOW_CONTROL(huart->Init.HwFlowCtl));
 80022ac:	69a3      	ldr	r3, [r4, #24]
 80022ae:	f433 7340 	bics.w	r3, r3, #768	@ 0x300
 80022b2:	d004      	beq.n	80022be <HAL_UART_Init+0x42>
 80022b4:	f44f 71ba 	mov.w	r1, #372	@ 0x174
    assert_param(IS_UART_INSTANCE(huart->Instance));
 80022b8:	4827      	ldr	r0, [pc, #156]	@ (8002358 <HAL_UART_Init+0xdc>)
 80022ba:	f7fe fe13 	bl	8000ee4 <assert_failed>
  assert_param(IS_UART_WORD_LENGTH(huart->Init.WordLength));
 80022be:	68a3      	ldr	r3, [r4, #8]
 80022c0:	f433 5380 	bics.w	r3, r3, #4096	@ 0x1000
 80022c4:	d004      	beq.n	80022d0 <HAL_UART_Init+0x54>
 80022c6:	4824      	ldr	r0, [pc, #144]	@ (8002358 <HAL_UART_Init+0xdc>)
 80022c8:	f44f 71bd 	mov.w	r1, #378	@ 0x17a
 80022cc:	f7fe fe0a 	bl	8000ee4 <assert_failed>
  assert_param(IS_UART_OVERSAMPLING(huart->Init.OverSampling));
 80022d0:	69e3      	ldr	r3, [r4, #28]
 80022d2:	f433 4300 	bics.w	r3, r3, #32768	@ 0x8000
 80022d6:	d004      	beq.n	80022e2 <HAL_UART_Init+0x66>
 80022d8:	481f      	ldr	r0, [pc, #124]	@ (8002358 <HAL_UART_Init+0xdc>)
 80022da:	f240 117b 	movw	r1, #379	@ 0x17b
 80022de:	f7fe fe01 	bl	8000ee4 <assert_failed>
  if (huart->gState == HAL_UART_STATE_RESET)
 80022e2:	f894 3041 	ldrb.w	r3, [r4, #65]	@ 0x41
 80022e6:	f003 02ff 	and.w	r2, r3, #255	@ 0xff
 80022ea:	b923      	cbnz	r3, 80022f6 <HAL_UART_Init+0x7a>
    huart->Lock = HAL_UNLOCKED;
 80022ec:	f884 2040 	strb.w	r2, [r4, #64]	@ 0x40
    HAL_UART_MspInit(huart);
 80022f0:	4620      	mov	r0, r4
 80022f2:	f7fe fe15 	bl	8000f20 <HAL_UART_MspInit>
  __HAL_UART_DISABLE(huart);
 80022f6:	6822      	ldr	r2, [r4, #0]
  huart->gState = HAL_UART_STATE_BUSY;
 80022f8:	2324      	movs	r3, #36	@ 0x24
 80022fa:	f884 3041 	strb.w	r3, [r4, #65]	@ 0x41
  __HAL_UART_DISABLE(huart);
 80022fe:	68d3      	ldr	r3, [r2, #12]
 8002300:	f423 5300 	bic.w	r3, r3, #8192	@ 0x2000
 8002304:	60d3      	str	r3, [r2, #12]
  UART_SetConfig(huart);
 8002306:	4620      	mov	r0, r4
 8002308:	f7ff ff2c 	bl	8002164 <UART_SetConfig>
  CLEAR_BIT(huart->Instance->CR2, (USART_CR2_LINEN | USART_CR2_CLKEN));
 800230c:	6823      	ldr	r3, [r4, #0]
 800230e:	691a      	ldr	r2, [r3, #16]
 8002310:	f422 4290 	bic.w	r2, r2, #18432	@ 0x4800
 8002314:	611a      	str	r2, [r3, #16]
  CLEAR_BIT(huart->Instance->CR3, (USART_CR3_SCEN | USART_CR3_HDSEL | USART_CR3_IREN));
 8002316:	695a      	ldr	r2, [r3, #20]
 8002318:	f022 022a 	bic.w	r2, r2, #42	@ 0x2a
 800231c:	615a      	str	r2, [r3, #20]
  __HAL_UART_ENABLE(huart);
 800231e:	68da      	ldr	r2, [r3, #12]
 8002320:	f442 5200 	orr.w	r2, r2, #8192	@ 0x2000
 8002324:	60da      	str	r2, [r3, #12]
  huart->ErrorCode = HAL_UART_ERROR_NONE;
 8002326:	2000      	movs	r0, #0
  huart->gState = HAL_UART_STATE_READY;
 8002328:	2320      	movs	r3, #32
  huart->ErrorCode = HAL_UART_ERROR_NONE;
 800232a:	6460      	str	r0, [r4, #68]	@ 0x44
  huart->gState = HAL_UART_STATE_READY;
 800232c:	f884 3041 	strb.w	r3, [r4, #65]	@ 0x41
  huart->RxState = HAL_UART_STATE_READY;
 8002330:	f884 3042 	strb.w	r3, [r4, #66]	@ 0x42
  huart->RxEventType = HAL_UART_RXEVENT_TC;
 8002334:	6360      	str	r0, [r4, #52]	@ 0x34
}
 8002336:	bd10      	pop	{r4, pc}
    assert_param(IS_UART_INSTANCE(huart->Instance));
 8002338:	4293      	cmp	r3, r2
 800233a:	d0c0      	beq.n	80022be <HAL_UART_Init+0x42>
 800233c:	4a07      	ldr	r2, [pc, #28]	@ (800235c <HAL_UART_Init+0xe0>)
 800233e:	4293      	cmp	r3, r2
 8002340:	d0bd      	beq.n	80022be <HAL_UART_Init+0x42>
 8002342:	f502 4250 	add.w	r2, r2, #53248	@ 0xd000
 8002346:	4293      	cmp	r3, r2
 8002348:	d0b9      	beq.n	80022be <HAL_UART_Init+0x42>
 800234a:	f44f 71bc 	mov.w	r1, #376	@ 0x178
 800234e:	e7b3      	b.n	80022b8 <HAL_UART_Init+0x3c>
    return HAL_ERROR;
 8002350:	2001      	movs	r0, #1
 8002352:	e7f0      	b.n	8002336 <HAL_UART_Init+0xba>
 8002354:	40011000 	.word	0x40011000
 8002358:	080025cb 	.word	0x080025cb
 800235c:	40004400 	.word	0x40004400

08002360 <HAL_UART_DeInit>:
{
 8002360:	b510      	push	{r4, lr}
  if (huart == NULL)
 8002362:	4604      	mov	r4, r0
 8002364:	b330      	cbz	r0, 80023b4 <HAL_UART_DeInit+0x54>
  assert_param(IS_UART_INSTANCE(huart->Instance));
 8002366:	6803      	ldr	r3, [r0, #0]
 8002368:	4a13      	ldr	r2, [pc, #76]	@ (80023b8 <HAL_UART_DeInit+0x58>)
 800236a:	4293      	cmp	r3, r2
 800236c:	d00c      	beq.n	8002388 <HAL_UART_DeInit+0x28>
 800236e:	f5a2 424c 	sub.w	r2, r2, #52224	@ 0xcc00
 8002372:	4293      	cmp	r3, r2
 8002374:	d008      	beq.n	8002388 <HAL_UART_DeInit+0x28>
 8002376:	f502 4250 	add.w	r2, r2, #53248	@ 0xd000
 800237a:	4293      	cmp	r3, r2
 800237c:	d004      	beq.n	8002388 <HAL_UART_DeInit+0x28>
 800237e:	480f      	ldr	r0, [pc, #60]	@ (80023bc <HAL_UART_DeInit+0x5c>)
 8002380:	f240 21a6 	movw	r1, #678	@ 0x2a6
 8002384:	f7fe fdae 	bl	8000ee4 <assert_failed>
  __HAL_UART_DISABLE(huart);
 8002388:	6822      	ldr	r2, [r4, #0]
  huart->gState = HAL_UART_STATE_BUSY;
 800238a:	2324      	movs	r3, #36	@ 0x24
 800238c:	f884 3041 	strb.w	r3, [r4, #65]	@ 0x41
  __HAL_UART_DISABLE(huart);
 8002390:	68d3      	ldr	r3, [r2, #12]
 8002392:	f423 5300 	bic.w	r3, r3, #8192	@ 0x2000
  HAL_UART_MspDeInit(huart);
 8002396:	4620      	mov	r0, r4
  __HAL_UART_DISABLE(huart);
 8002398:	60d3      	str	r3, [r2, #12]
  HAL_UART_MspDeInit(huart);
 800239a:	f7fe fe19 	bl	8000fd0 <HAL_UART_MspDeInit>
  huart->ErrorCode = HAL_UART_ERROR_NONE;
 800239e:	2000      	movs	r0, #0
 80023a0:	6460      	str	r0, [r4, #68]	@ 0x44
  __HAL_UNLOCK(huart);
 80023a2:	f884 0040 	strb.w	r0, [r4, #64]	@ 0x40
  huart->gState = HAL_UART_STATE_RESET;
 80023a6:	f884 0041 	strb.w	r0, [r4, #65]	@ 0x41
  huart->RxState = HAL_UART_STATE_RESET;
 80023aa:	f884 0042 	strb.w	r0, [r4, #66]	@ 0x42
  huart->ReceptionType = HAL_UART_RECEPTION_STANDARD;
 80023ae:	6320      	str	r0, [r4, #48]	@ 0x30
  huart->RxEventType = HAL_UART_RXEVENT_TC;
 80023b0:	6360      	str	r0, [r4, #52]	@ 0x34
}
 80023b2:	bd10      	pop	{r4, pc}
    return HAL_ERROR;
 80023b4:	2001      	movs	r0, #1
 80023b6:	e7fc      	b.n	80023b2 <HAL_UART_DeInit+0x52>
 80023b8:	40011000 	.word	0x40011000
 80023bc:	080025cb 	.word	0x080025cb

080023c0 <memcmp>:
 80023c0:	b510      	push	{r4, lr}
 80023c2:	3901      	subs	r1, #1
 80023c4:	4402      	add	r2, r0
 80023c6:	4290      	cmp	r0, r2
 80023c8:	d101      	bne.n	80023ce <memcmp+0xe>
 80023ca:	2000      	movs	r0, #0
 80023cc:	e005      	b.n	80023da <memcmp+0x1a>
 80023ce:	7803      	ldrb	r3, [r0, #0]
 80023d0:	f811 4f01 	ldrb.w	r4, [r1, #1]!
 80023d4:	42a3      	cmp	r3, r4
 80023d6:	d001      	beq.n	80023dc <memcmp+0x1c>
 80023d8:	1b18      	subs	r0, r3, r4
 80023da:	bd10      	pop	{r4, pc}
 80023dc:	3001      	adds	r0, #1
 80023de:	e7f2      	b.n	80023c6 <memcmp+0x6>

080023e0 <memset>:
 80023e0:	4402      	add	r2, r0
 80023e2:	4603      	mov	r3, r0
 80023e4:	4293      	cmp	r3, r2
 80023e6:	d100      	bne.n	80023ea <memset+0xa>
 80023e8:	4770      	bx	lr
 80023ea:	f803 1b01 	strb.w	r1, [r3], #1
 80023ee:	e7f9      	b.n	80023e4 <memset+0x4>

080023f0 <__libc_init_array>:
 80023f0:	b570      	push	{r4, r5, r6, lr}
 80023f2:	4d0d      	ldr	r5, [pc, #52]	@ (8002428 <__libc_init_array+0x38>)
 80023f4:	4c0d      	ldr	r4, [pc, #52]	@ (800242c <__libc_init_array+0x3c>)
 80023f6:	1b64      	subs	r4, r4, r5
 80023f8:	10a4      	asrs	r4, r4, #2
 80023fa:	2600      	movs	r6, #0
 80023fc:	42a6      	cmp	r6, r4
 80023fe:	d109      	bne.n	8002414 <__libc_init_array+0x24>
 8002400:	4d0b      	ldr	r5, [pc, #44]	@ (8002430 <__libc_init_array+0x40>)
 8002402:	4c0c      	ldr	r4, [pc, #48]	@ (8002434 <__libc_init_array+0x44>)
 8002404:	f000 f818 	bl	8002438 <_init>
 8002408:	1b64      	subs	r4, r4, r5
 800240a:	10a4      	asrs	r4, r4, #2
 800240c:	2600      	movs	r6, #0
 800240e:	42a6      	cmp	r6, r4
 8002410:	d105      	bne.n	800241e <__libc_init_array+0x2e>
 8002412:	bd70      	pop	{r4, r5, r6, pc}
 8002414:	f855 3b04 	ldr.w	r3, [r5], #4
 8002418:	4798      	blx	r3
 800241a:	3601      	adds	r6, #1
 800241c:	e7ee      	b.n	80023fc <__libc_init_array+0xc>
 800241e:	f855 3b04 	ldr.w	r3, [r5], #4
 8002422:	4798      	blx	r3
 8002424:	3601      	adds	r6, #1
 8002426:	e7f2      	b.n	800240e <__libc_init_array+0x1e>
 8002428:	0800275c 	.word	0x0800275c
 800242c:	0800275c 	.word	0x0800275c
 8002430:	0800275c 	.word	0x0800275c
 8002434:	08002760 	.word	0x08002760

08002438 <_init>:
 8002438:	b5f8      	push	{r3, r4, r5, r6, r7, lr}
 800243a:	bf00      	nop
 800243c:	bcf8      	pop	{r3, r4, r5, r6, r7}
 800243e:	bc08      	pop	{r3}
 8002440:	469e      	mov	lr, r3
 8002442:	4770      	bx	lr

08002444 <_fini>:
 8002444:	b5f8      	push	{r3, r4, r5, r6, r7, lr}
 8002446:	bf00      	nop
 8002448:	bcf8      	pop	{r3, r4, r5, r6, r7}
 800244a:	bc08      	pop	{r3}
 800244c:	469e      	mov	lr, r3
 800244e:	4770      	bx	lr
